ARM Linker, 5.03 [Build 76] [MDK-ARM Standard]

==============================================================================

Section Cross References

    main.o(.text) refers to hal_process_debug.o(.text) for hal_process_debug
    main.o(.text) refers to hal_process_control.o(.text) for hal_process_control
    main.o(.text) refers to hal_process_collect.o(.text) for hal_process_collect
    main.o(.text) refers to bsp.o(.text) for OSTmr_Count_Start
    main.o(.text) refers to os_time.o(.text) for OSTimeDly
    main.o(.text) refers to hal_process_serves.o(.text) for tcp_server_process
    main.o(.text) refers to os_cpu_a.o(.text) for OS_CPU_SR_Save
    main.o(.text) refers to os_task.o(.text) for OSTaskCreateExt
    main.o(.text) refers to os_sem.o(.text) for OSSemCreate
    main.o(.text) refers to os_mbox.o(.text) for OSMboxCreate
    main.o(.text) refers to os_cpu_c.o(.text) for OS_CPU_SysTickInit
    main.o(.text) refers to os_core.o(.text) for OSStatInit
    main.o(.text) refers to lwip.o(.text) for Init_LwIP
    main.o(.text) refers to stm32f10x_iwdg.o(.text) for IWDG_ReloadCounter
    main.o(.text) refers to bsp_usart.o(.text) for BSP_USART_Config
    main.o(.text) refers to bsp_tim.o(.text) for BSP_TIM3_Init
    main.o(.text) refers to bsp_can.o(.text) for BSP_CANX_Init
    main.o(.text) refers to stm32f10x_can.o(.text) for CAN_ITConfig
    main.o(.text) refers to bsp_spi.o(.text) for BSP_SPI1_Init
    main.o(.text) refers to bsp_eth.o(.text) for BSP_EthernetInit
    main.o(.text) refers to main.o(.data) for updatatime
    main.o(.text) refers to main.o(.bss) for App_TaskLWIPStk
    main.o(.text) refers to bsp.o(.bss) for g_system_para
    hal_process_control.o(.text) refers to bsp_can.o(.text) for BSP_CAN_SendMsg
    hal_process_control.o(.text) refers to os_mbox.o(.text) for OSMboxPend
    hal_process_control.o(.text) refers to bsp.o(.text) for myPrintf
    hal_process_control.o(.text) refers to bsp_spi.o(.text) for BSP_Write_DOUT1_24
    hal_process_control.o(.text) refers to os_time.o(.text) for OSTimeDly
    hal_process_control.o(.text) refers to main.o(.data) for CANItMbox
    hal_process_control.o(.text) refers to hal_process_control.o(.constdata) for .constdata
    hal_process_control.o(.text) refers to hal_process_control.o(.data) for CanSendData_velocity1
    hal_process_control.o(.text) refers to dflti.o(.text) for __aeabi_i2d
    hal_process_control.o(.text) refers to dmul.o(.text) for __aeabi_dmul
    hal_process_control.o(.text) refers to ddiv.o(.text) for __aeabi_ddiv
    hal_process_control.o(.text) refers to dfixi.o(.text) for __aeabi_d2iz
    hal_process_control.o(.text) refers to patrol_control.o(.text) for TrackingLR
    hal_process_control.o(.text) refers to hal_process_collect.o(.data) for g_movelimitcout
    hal_process_control.o(.text) refers to memseta.o(.text) for __aeabi_memclr
    hal_process_control.o(.text) refers to memcpya.o(.text) for __aeabi_memcpy
    hal_process_control.o(.text) refers to hal_process_serves.o(.text) for PackData
    hal_process_control.o(.text) refers to hal_process_control.o(.bss) for btmp
    hal_process_control.o(.text) refers to dadd.o(.text) for __aeabi_dadd
    hal_process_control.o(.data) refers to hal_process_control.o(.constdata) for CanSendData_position
    hal_process_serves.o(.text) refers to memseta.o(.text) for __aeabi_memclr4
    hal_process_serves.o(.text) refers to strcpy.o(.text) for strcpy
    hal_process_serves.o(.text) refers to strncmp.o(.text) for strncmp
    hal_process_serves.o(.text) refers to hal_process_control.o(.text) for MotorStopAll
    hal_process_serves.o(.text) refers to os_mbox.o(.text) for OSMboxPost
    hal_process_serves.o(.text) refers to os_sem.o(.text) for OSSemPend
    hal_process_serves.o(.text) refers to api_lib.o(.text) for netconn_write_partly
    hal_process_serves.o(.text) refers to bsp.o(.text) for OSTmr_Count_Start
    hal_process_serves.o(.text) refers to os_task.o(.text) for OSTaskSuspend
    hal_process_serves.o(.text) refers to bsp_spi.o(.text) for BSP_SPI_FLASH_BufferWrite
    hal_process_serves.o(.text) refers to memcmp.o(.text) for memcmp
    hal_process_serves.o(.text) refers to hal_process_serves.o(.bss) for cstr
    hal_process_serves.o(.text) refers to main.o(.data) for DebugMbox
    hal_process_serves.o(.text) refers to hal_process_serves.o(.data) for newconn
    hal_process_serves.o(.text) refers to bsp.o(.bss) for g_system_para
    hal_process_serves.o(.text) refers to os_time.o(.text) for OSTimeDly
    hal_process_serves.o(.text) refers to lwip.o(.text) for Display_IPAddress
    hal_process_serves.o(.text) refers to ip_addr.o(.text) for ipaddr_ntoa
    hal_process_serves.o(.text) refers to memcpya.o(.text) for __aeabi_memcpy
    hal_process_serves.o(.text) refers to netbuf.o(.text) for netbuf_delete
    hal_process_serves.o(.text) refers to atoi.o(.text) for atoi
    hal_process_serves.o(.text) refers to strstr.o(.text) for strstr
    hal_process_serves.o(.text) refers to printfa.o(i.__0vsprintf) for __c89vsprintf
    hal_process_serves.o(.text) refers to strlen.o(.text) for strlen
    hal_process_serves.o(.text) refers to hal_process_control.o(.data) for g_stopflag
    hal_process_serves.o(.text) refers to ip_addr.o(.constdata) for ip_addr_any
    hal_process_collect.o(.text) refers to bsp.o(.text) for XorCheck16Pro
    hal_process_collect.o(.text) refers to memseta.o(.text) for __aeabi_memclr
    hal_process_collect.o(.text) refers to stm32f10x_tim.o(.text) for TIM_GetCounter
    hal_process_collect.o(.text) refers to bsp_spi.o(.text) for BSP_Write_DOUT1_24
    hal_process_collect.o(.text) refers to bsp_usart.o(.text) for BSP_RS232_SendData
    hal_process_collect.o(.text) refers to os_mbox.o(.text) for OSMboxPend
    hal_process_collect.o(.text) refers to hal_process_collect.o(.bss) for g_receive11
    hal_process_collect.o(.text) refers to hal_process_collect.o(.data) for updatatime
    hal_process_collect.o(.text) refers to hal_process_collect.o(.constdata) for cmd_ultrasonic
    hal_process_collect.o(.text) refers to main.o(.data) for USART1Mbox
    hal_process_collect.o(.text) refers to memcpya.o(.text) for __aeabi_memcpy
    hal_process_collect.o(.text) refers to hal_process_serves.o(.text) for PackData
    hal_process_collect.o(.text) refers to os_time.o(.text) for OSTimeDlyHMSM
    hal_process_debug.o(.text) refers to os_mbox.o(.text) for OSMboxPend
    hal_process_debug.o(.text) refers to bsp.o(.text) for myPrintf
    hal_process_debug.o(.text) refers to strncmp.o(.text) for strncmp
    hal_process_debug.o(.text) refers to hal_process_control.o(.text) for TestTurnMotor
    hal_process_debug.o(.text) refers to bsp_spi.o(.text) for BSP_Write_DOUT1_24
    hal_process_debug.o(.text) refers to hal_process_serves.o(.text) for NetPrintf
    hal_process_debug.o(.text) refers to memseta.o(.text) for __aeabi_memclr4
    hal_process_debug.o(.text) refers to strstr.o(.text) for strstr
    hal_process_debug.o(.text) refers to main.o(.data) for DebugMbox
    hal_process_debug.o(.text) refers to hal_process_debug.o(.constdata) for .constdata
    hal_process_debug.o(.text) refers to f2d.o(.text) for __aeabi_f2d
    hal_process_debug.o(.text) refers to os_time.o(.text) for OSTimeDly
    hal_process_debug.o(.text) refers to bsp.o(.bss) for g_system_para
    patrol_control.o(.text) refers to fadd.o(.text) for __aeabi_fsub
    patrol_control.o(.text) refers to fmul.o(.text) for __aeabi_fmul
    patrol_control.o(.text) refers to f2d.o(.text) for __aeabi_f2d
    patrol_control.o(.text) refers to printfa.o(i.__0printf) for __2printf
    patrol_control.o(.text) refers to ffixi.o(.text) for __aeabi_f2iz
    patrol_control.o(.text) refers to patrol_control.o(.bss) for fPID
    patrol_control.o(.text) refers to patrol_control.o(.data) for PidData
    patrol_control.o(.text) refers to memseta.o(.text) for __aeabi_memclr4
    patrol_control.o(.text) refers to hal_process_collect.o(.bss) for g_receive11
    patrol_control.o(.text) refers to fdiv.o(.text) for __aeabi_fdiv
    patrol_control.o(.text) refers to fflti.o(.text) for __aeabi_i2f
    patrol_control.o(.text) refers to dadd.o(.text) for __aeabi_dadd
    patrol_control.o(.text) refers to floor.o(i.floor) for floor
    patrol_control.o(.text) refers to dfixi.o(.text) for __aeabi_d2iz
    patrol_control.o(.text) refers to dflti.o(.text) for __aeabi_i2d
    patrol_control.o(.text) refers to ddiv.o(.text) for __aeabi_ddiv
    patrol_control.o(.text) refers to d2f.o(.text) for __aeabi_d2f
    patrol_control.o(.text) refers to cfrcmple.o(.text) for __aeabi_cfrcmple
    patrol_control.o(.text) refers to cfcmple.o(.text) for __aeabi_cfcmple
    patrol_control.o(.text) refers to hal_process_control.o(.text) for ForwardWheel
    patrol_control.o(.text) refers to cdcmple.o(.text) for __aeabi_cdcmple
    bsp.o(.text) refers to _scanf_int.o(.text) for _scanf_int
    bsp.o(.text) refers to misc.o(.text) for NVIC_SetVectorTable
    bsp.o(.text) refers to stm32f10x_rcc.o(.text) for RCC_APB2PeriphClockCmd
    bsp.o(.text) refers to stm32f10x_gpio.o(.text) for GPIO_Init
    bsp.o(.text) refers to stm32f10x_iwdg.o(.text) for IWDG_WriteAccessCmd
    bsp.o(.text) refers to system_stm32f10x.o(.text) for SystemInit
    bsp.o(.text) refers to stm32f10x_pwr.o(.text) for PWR_PVDLevelConfig
    bsp.o(.text) refers to stm32f10x_exti.o(.text) for EXTI_ClearITPendingBit
    bsp.o(.text) refers to os_sem.o(.text) for OSSemPend
    bsp.o(.text) refers to printfa.o(i.__0vprintf) for __c89vprintf
    bsp.o(.text) refers to __0sscanf.o(.text) for __0sscanf
    bsp.o(.text) refers to printfa.o(i.__0sprintf) for __2sprintf
    bsp.o(.text) refers to os_core.o(.data) for OSRunning
    bsp.o(.text) refers to main.o(.data) for DBGMutexSem
    bsp.o(.text) refers to bsp.o(.data) for DBGMutexFlag
    bsp.o(.text) refers to localtime.o(.text) for localtime
    bsp.o(.text) refers to os_cpu_a.o(.text) for OS_CPU_SR_Save
    bsp.o(.text) refers to memseta.o(.text) for __aeabi_memclr4
    bsp.o(.text) refers to stm32f10x_flash.o(.text) for FLASH_Unlock
    bsp.o(.text) refers to memcpya.o(.text) for __aeabi_memcpy4
    bsp.o(.text) refers to memcmp.o(.text) for memcmp
    bsp_can.o(.text) refers to stm32f10x_can.o(.text) for CAN_StructInit
    bsp_can.o(.text) refers to bsp.o(.text) for OSTmr_Count_Start
    bsp_can.o(.text) refers to os_cpu_a.o(.text) for OS_CPU_SR_Save
    bsp_can.o(.text) refers to os_mbox.o(.text) for OSMboxPost
    bsp_can.o(.text) refers to os_core.o(.text) for OSIntExit
    bsp_can.o(.text) refers to main.o(.data) for CANItMbox
    bsp_can.o(.text) refers to bsp_can.o(.bss) for g_canrecv_msg
    bsp_can.o(.text) refers to bsp_can.o(.constdata) for .constdata
    bsp_can.o(.text) refers to os_core.o(.data) for OSIntNesting
    bsp_eth.o(.text) refers to stm32f10x_gpio.o(.text) for GPIO_ETH_MediaInterfaceConfig
    bsp_eth.o(.text) refers to stm32f10x_rcc.o(.text) for RCC_PLL3Config
    bsp_eth.o(.text) refers to stm32_eth.o(.text) for ETH_DeInit
    bsp_usart.o(.text) refers to stm32f10x_usart.o(.text) for USART_ClockInit
    bsp_usart.o(.text) refers to os_cpu_a.o(.text) for OS_CPU_SR_Save
    bsp_usart.o(.text) refers to os_time.o(.text) for OSTimeGet
    bsp_usart.o(.text) refers to os_core.o(.text) for OSIntExit
    bsp_usart.o(.text) refers to memseta.o(.text) for __aeabi_memclr
    bsp_usart.o(.text) refers to os_mbox.o(.text) for OSMboxPost
    bsp_usart.o(.text) refers to stm32f10x_gpio.o(.text) for GPIO_SetBits
    bsp_usart.o(.text) refers to os_core.o(.data) for OSIntNesting
    bsp_usart.o(.text) refers to bsp_usart.o(.data) for g_u5time
    bsp_usart.o(.text) refers to bsp_usart.o(.bss) for uart5_rx
    bsp_usart.o(.text) refers to main.o(.data) for USART1Mbox
    bsp_tim.o(.text) refers to stm32f10x_tim.o(.text) for TIM_TimeBaseInit
    bsp_tim.o(.text) refers to stm32f10x_rcc.o(.text) for RCC_APB1PeriphClockCmd
    bsp_tim.o(.text) refers to stm32f10x_gpio.o(.text) for GPIO_Init
    bsp_spi.o(.text) refers to stm32f10x_spi.o(.text) for SPI_I2S_GetFlagStatus
    bsp_spi.o(.text) refers to stm32f10x_gpio.o(.text) for GPIO_ResetBits
    bsp_spi.o(.text) refers to os_time.o(.text) for OSTimeDly
    bsp_spi.o(.text) refers to bsp.o(.text) for SoftDelayMS
    bsp_spi.o(.text) refers to bsp_spi.o(.data) for outstate
    bsp_spi.o(.text) refers to os_core.o(.data) for OSRunning
    stm32f10x_it.o(.text) refers to printfa.o(i.__0printf) for __2printf
    stm32f10x_it.o(.text) refers to os_core.o(.text) for OSIntEnter
    stm32f10x_it.o(.text) refers to lwip.o(.text) for LwIP_Pkt_Handle
    stm32f10x_it.o(.text) refers to stm32_eth.o(.text) for ETH_GetRxPktSize
    stm32f10x_it.o(.text) refers to os_cpu_a.o(.text) for OS_CPU_SR_Save
    stm32f10x_it.o(.text) refers to os_time.o(.text) for OSTimeGet
    stm32f10x_it.o(.text) refers to os_mbox.o(.text) for OSMboxPost
    stm32f10x_it.o(.text) refers to os_core.o(.data) for OSIntNesting
    stm32f10x_it.o(.text) refers to bsp_usart.o(.data) for g_u5time
    stm32f10x_it.o(.text) refers to bsp_usart.o(.bss) for uart5_rx
    stm32f10x_it.o(.text) refers to main.o(.data) for DebugMbox
    system_stm32f10x.o(.text) refers to system_stm32f10x.o(.data) for SystemCoreClock
    startup_stm32f10x_cl.o(RESET) refers to startup_stm32f10x_cl.o(STACK) for __initial_sp
    startup_stm32f10x_cl.o(RESET) refers to startup_stm32f10x_cl.o(.text) for Reset_Handler
    startup_stm32f10x_cl.o(RESET) refers to stm32f10x_it.o(.text) for NMI_Handler
    startup_stm32f10x_cl.o(RESET) refers to os_cpu_a.o(.text) for PendSV_Handler
    startup_stm32f10x_cl.o(RESET) refers to bsp_can.o(.text) for CAN1_RX0_IRQHandler
    startup_stm32f10x_cl.o(RESET) refers to bsp_usart.o(.text) for USART1_IRQHandler
    startup_stm32f10x_cl.o(.text) refers to system_stm32f10x.o(.text) for SystemInit
    startup_stm32f10x_cl.o(.text) refers to entry.o(.ARM.Collect$$$$00000000) for __main
    stm32_eth.o(.text) refers to stm32f10x_rcc.o(.text) for RCC_AHBPeriphResetCmd
    stm32_eth.o(.text) refers to stm32_eth.o(.data) for DMATxDescToSet
    stm32f10x_adc.o(.text) refers to stm32f10x_rcc.o(.text) for RCC_APB2PeriphResetCmd
    stm32f10x_bkp.o(.text) refers to stm32f10x_rcc.o(.text) for RCC_BackupResetCmd
    stm32f10x_can.o(.text) refers to stm32f10x_rcc.o(.text) for RCC_APB1PeriphResetCmd
    stm32f10x_cec.o(.text) refers to stm32f10x_rcc.o(.text) for RCC_APB1PeriphResetCmd
    stm32f10x_dac.o(.text) refers to stm32f10x_rcc.o(.text) for RCC_APB1PeriphResetCmd
    stm32f10x_gpio.o(.text) refers to stm32f10x_rcc.o(.text) for RCC_APB2PeriphResetCmd
    stm32f10x_i2c.o(.text) refers to stm32f10x_rcc.o(.text) for RCC_APB1PeriphResetCmd
    stm32f10x_pwr.o(.text) refers to stm32f10x_rcc.o(.text) for RCC_APB1PeriphResetCmd
    stm32f10x_rcc.o(.text) refers to stm32f10x_rcc.o(.data) for APBAHBPrescTable
    stm32f10x_spi.o(.text) refers to stm32f10x_rcc.o(.text) for RCC_APB2PeriphResetCmd
    stm32f10x_tim.o(.text) refers to stm32f10x_rcc.o(.text) for RCC_APB2PeriphResetCmd
    stm32f10x_usart.o(.text) refers to stm32f10x_rcc.o(.text) for RCC_APB2PeriphResetCmd
    stm32f10x_wwdg.o(.text) refers to stm32f10x_rcc.o(.text) for RCC_APB1PeriphResetCmd
    os_core.o(.text) refers to os_cpu_a.o(.text) for OS_CPU_SR_Save
    os_core.o(.text) refers to os_core.o(.data) for OSIntNesting
    os_core.o(.text) refers to os_core.o(.constdata) for OSUnMapTbl
    os_core.o(.text) refers to os_core.o(.bss) for OSTCBPrioTbl
    os_core.o(.text) refers to os_task.o(.text) for OSTaskStkChk
    os_core.o(.text) refers to os_time.o(.text) for OSTimeDly
    os_core.o(.text) refers to os_cpu_c.o(.text) for OSTaskStatHook
    os_core.o(.text) refers to os_flag.o(.text) for OS_FlagInit
    os_core.o(.text) refers to os_mem.o(.text) for OS_MemInit
    os_core.o(.text) refers to os_q.o(.text) for OS_QInit
    os_cpu_c.o(.text) refers to system_stm32f10x.o(.data) for SystemCoreClock
    os_flag.o(.text) refers to os_cpu_a.o(.text) for OS_CPU_SR_Save
    os_flag.o(.text) refers to os_core.o(.text) for OS_Sched
    os_flag.o(.text) refers to os_core.o(.data) for OSIntNesting
    os_flag.o(.text) refers to os_core.o(.bss) for OSFlagTbl
    os_mbox.o(.text) refers to os_cpu_a.o(.text) for OS_CPU_SR_Save
    os_mbox.o(.text) refers to os_core.o(.text) for OS_EventWaitListInit
    os_mbox.o(.text) refers to os_core.o(.data) for OSIntNesting
    os_mem.o(.text) refers to os_cpu_a.o(.text) for OS_CPU_SR_Save
    os_mem.o(.text) refers to os_core.o(.text) for OS_StrLen
    os_mem.o(.text) refers to os_core.o(.data) for OSMemFreeList
    os_mem.o(.text) refers to os_core.o(.bss) for OSMemTbl
    os_mutex.o(.text) refers to os_cpu_a.o(.text) for OS_CPU_SR_Save
    os_mutex.o(.text) refers to os_core.o(.text) for OS_EventWaitListInit
    os_mutex.o(.text) refers to os_core.o(.data) for OSIntNesting
    os_mutex.o(.text) refers to os_core.o(.bss) for OSTCBPrioTbl
    os_q.o(.text) refers to os_cpu_a.o(.text) for OS_CPU_SR_Save
    os_q.o(.text) refers to os_core.o(.text) for OS_EventWaitListInit
    os_q.o(.text) refers to os_core.o(.data) for OSIntNesting
    os_q.o(.text) refers to os_core.o(.bss) for OSQTbl
    os_sem.o(.text) refers to os_cpu_a.o(.text) for OS_CPU_SR_Save
    os_sem.o(.text) refers to os_core.o(.text) for OS_EventWaitListInit
    os_sem.o(.text) refers to os_core.o(.data) for OSIntNesting
    os_task.o(.text) refers to os_cpu_a.o(.text) for OS_CPU_SR_Save
    os_task.o(.text) refers to os_core.o(.text) for OS_Sched
    os_task.o(.text) refers to os_cpu_c.o(.text) for OSTaskStkInit
    os_task.o(.text) refers to os_flag.o(.text) for OS_FlagUnlink
    os_task.o(.text) refers to os_core.o(.bss) for OSTCBPrioTbl
    os_task.o(.text) refers to os_core.o(.data) for OSTCBCur
    os_time.o(.text) refers to os_cpu_a.o(.text) for OS_CPU_SR_Save
    os_time.o(.text) refers to os_core.o(.text) for OS_Sched
    os_time.o(.text) refers to os_core.o(.data) for OSIntNesting
    os_time.o(.text) refers to os_core.o(.bss) for OSTCBPrioTbl
    os_cpu_a.o(.text) refers to os_core.o(.data) for OSRunning
    os_cpu_a.o(.text) refers to os_cpu_c.o(.text) for OSTaskSwHook
    ethernetif.o(.text) refers to stm32_eth.o(.text) for ETH_MACAddressConfig
    ethernetif.o(.text) refers to memcpya.o(.text) for __aeabi_memcpy
    ethernetif.o(.text) refers to pbuf.o(.text) for pbuf_alloc
    ethernetif.o(.text) refers to printfa.o(i.__0printf) for __2printf
    ethernetif.o(.text) refers to mem.o(.text) for mem_malloc
    ethernetif.o(.text) refers to sys_arch.o(.text) for sys_sem_signal
    ethernetif.o(.text) refers to ethernetif.o(.data) for MACaddr
    ethernetif.o(.text) refers to ethernetif.o(.bss) for Tx_Buff
    ethernetif.o(.text) refers to stm32_eth.o(.data) for DMATxDescToSet
    ethernetif.o(.text) refers to etharp.o(.text) for etharp_output
    ethernetif.o(.data) refers to ethernetif.o(.bss) for DMATxDscrTab
    sys_arch.o(.text) refers to os_mem.o(.text) for OSMemGet
    sys_arch.o(.text) refers to printfa.o(i.__0printf) for __2printf
    sys_arch.o(.text) refers to os_q.o(.text) for OSQCreate
    sys_arch.o(.text) refers to os_time.o(.text) for OSTimeGet
    sys_arch.o(.text) refers to memseta.o(.text) for __aeabi_memclr4
    sys_arch.o(.text) refers to os_sem.o(.text) for OSSemCreate
    sys_arch.o(.text) refers to os_core.o(.text) for OSEventNameSet
    sys_arch.o(.text) refers to os_task.o(.text) for OSTaskCreateExt
    sys_arch.o(.text) refers to sys_arch.o(.data) for pQueueMem
    sys_arch.o(.text) refers to sys_arch.o(.constdata) for pvNullPointer
    sys_arch.o(.text) refers to sys_arch.o(.bss) for pcQueueMemoryPool
    api_lib.o(.text) refers to api_msg.o(.text) for netconn_alloc
    api_lib.o(.text) refers to tcpip.o(.text) for tcpip_apimsg
    api_lib.o(.text) refers to printfa.o(i.__0printf) for __2printf
    api_lib.o(.text) refers to sys_arch.o(.text) for sys_sem_valid
    api_lib.o(.text) refers to memp.o(.text) for memp_free
    api_lib.o(.text) refers to os_cpu_a.o(.text) for OS_CPU_SR_Save
    api_msg.o(.text) refers to sys_arch.o(.text) for sys_mbox_valid
    api_msg.o(.text) refers to pbuf.o(.text) for pbuf_alloc
    api_msg.o(.text) refers to memp.o(.text) for memp_malloc
    api_msg.o(.text) refers to netbuf.o(.text) for netbuf_delete
    api_msg.o(.text) refers to printfa.o(i.__0printf) for __2printf
    api_msg.o(.text) refers to tcp.o(.text) for tcp_recved
    api_msg.o(.text) refers to os_cpu_a.o(.text) for OS_CPU_SR_Save
    api_msg.o(.text) refers to ip.o(.data) for current_iphdr_src
    api_msg.o(.text) refers to tcp_out.o(.text) for tcp_write
    api_msg.o(.text) refers to raw.o(.text) for raw_new
    api_msg.o(.text) refers to udp.o(.text) for udp_new
    netbuf.o(.text) refers to memp.o(.text) for memp_malloc
    netbuf.o(.text) refers to pbuf.o(.text) for pbuf_free
    netbuf.o(.text) refers to printfa.o(i.__0printf) for __2printf
    sockets.o(.text) refers to os_cpu_a.o(.text) for OS_CPU_SR_Save
    sockets.o(.text) refers to pbuf.o(.text) for pbuf_free
    sockets.o(.text) refers to netbuf.o(.text) for netbuf_delete
    sockets.o(.text) refers to printfa.o(i.__0printf) for __2printf
    sockets.o(.text) refers to sys_arch.o(.text) for sys_sem_signal
    sockets.o(.text) refers to api_lib.o(.text) for netconn_accept
    sockets.o(.text) refers to def.o(.text) for lwip_htons
    sockets.o(.text) refers to memcpya.o(.text) for __aeabi_memcpy
    sockets.o(.text) refers to sockets.o(.bss) for sockets
    sockets.o(.text) refers to sockets.o(.data) for select_cb_list
    sockets.o(.text) refers to sockets.o(.constdata) for err_to_errno_table
    sockets.o(.text) refers to tcpip.o(.text) for tcpip_callback_with_block
    tcpip.o(.text) refers to timers.o(.text) for sys_timeouts_mbox_fetch
    tcpip.o(.text) refers to etharp.o(.text) for ethernet_input
    tcpip.o(.text) refers to ip.o(.text) for ip_input
    tcpip.o(.text) refers to memp.o(.text) for memp_free
    tcpip.o(.text) refers to printfa.o(i.__0printf) for __2printf
    tcpip.o(.text) refers to sys_arch.o(.text) for sys_mbox_valid
    tcpip.o(.text) refers to init.o(.text) for lwip_init
    tcpip.o(.text) refers to pbuf.o(.text) for pbuf_free
    tcpip.o(.text) refers to tcpip.o(.data) for tcpip_init_done
    tcpip.o(.text) refers to mem.o(.text) for mem_free
    icmp.o(.text) refers to pbuf.o(.text) for pbuf_header
    icmp.o(.text) refers to ip_addr.o(.text) for ip4_addr_isbroadcast
    icmp.o(.text) refers to inet_chksum.o(.text) for inet_chksum_pbuf
    icmp.o(.text) refers to printfa.o(i.__0printf) for __2printf
    icmp.o(.text) refers to ip.o(.text) for ip_output_if
    icmp.o(.text) refers to memcpya.o(.text) for __aeabi_memcpy
    icmp.o(.text) refers to ip.o(.data) for current_iphdr_dest
    inet_chksum.o(.text) refers to def.o(.text) for lwip_htons
    inet_chksum.o(.text) refers to printfa.o(i.__0printf) for __2printf
    ip.o(.text) refers to pbuf.o(.text) for pbuf_free
    ip.o(.text) refers to def.o(.text) for lwip_ntohs
    ip.o(.text) refers to ip_addr.o(.text) for ip4_addr_isbroadcast
    ip.o(.text) refers to ip_frag.o(.text) for ip_reass
    ip.o(.text) refers to raw.o(.text) for raw_input
    ip.o(.text) refers to udp.o(.text) for udp_input
    ip.o(.text) refers to tcp_in.o(.text) for tcp_input
    ip.o(.text) refers to icmp.o(.text) for icmp_input
    ip.o(.text) refers to printfa.o(i.__0printf) for __2printf
    ip.o(.text) refers to netif.o(.data) for netif_list
    ip.o(.text) refers to ip.o(.data) for current_iphdr_dest
    ip_addr.o(.text) refers to def.o(.text) for lwip_htonl
    ip_addr.o(.text) refers to printfa.o(i.__0printf) for __2printf
    ip_addr.o(.text) refers to ip_addr.o(.bss) for str
    ip_frag.o(.text) refers to printfa.o(i.__0printf) for __2printf
    ip_frag.o(.text) refers to memp.o(.text) for memp_free
    ip_frag.o(.text) refers to memcpya.o(.text) for __aeabi_memcpy
    ip_frag.o(.text) refers to icmp.o(.text) for icmp_time_exceeded
    ip_frag.o(.text) refers to pbuf.o(.text) for pbuf_clen
    ip_frag.o(.text) refers to memseta.o(.text) for __aeabi_memclr4
    ip_frag.o(.text) refers to def.o(.text) for lwip_ntohs
    ip_frag.o(.text) refers to ip_frag.o(.data) for reassdatagrams
    ip_frag.o(.text) refers to inet_chksum.o(.text) for inet_chksum
    init.o(.text) refers to sys_arch.o(.text) for sys_init
    init.o(.text) refers to mem.o(.text) for mem_init
    init.o(.text) refers to memp.o(.text) for memp_init
    init.o(.text) refers to netif.o(.text) for netif_init
    init.o(.text) refers to sockets.o(.text) for lwip_socket_init
    init.o(.text) refers to udp.o(.text) for udp_init
    init.o(.text) refers to tcp.o(.text) for tcp_init
    init.o(.text) refers to timers.o(.text) for sys_timeouts_init
    mem.o(.text) refers to printfa.o(i.__0printf) for __2printf
    mem.o(.text) refers to sys_arch.o(.text) for sys_sem_new
    mem.o(.text) refers to os_cpu_a.o(.text) for OS_CPU_SR_Save
    mem.o(.text) refers to mem.o(.data) for ram
    mem.o(.text) refers to mem.o(.bss) for ram_heap
    mem.o(.text) refers to memseta.o(.text) for __aeabi_memclr
    memp.o(.text) refers to printfa.o(i.__0printf) for __2printf
    memp.o(.text) refers to os_cpu_a.o(.text) for OS_CPU_SR_Save
    memp.o(.text) refers to memp.o(.bss) for memp_memory
    memp.o(.text) refers to memp.o(.constdata) for memp_sizes
    netif.o(.text) refers to tcp.o(.text) for tcp_abort
    netif.o(.text) refers to printfa.o(i.__0printf) for __2printf
    netif.o(.text) refers to etharp.o(.text) for etharp_cleanup_netif
    netif.o(.text) refers to tcp.o(.data) for tcp_active_pcbs
    netif.o(.text) refers to netif.o(.data) for netif_num
    pbuf.o(.text) refers to os_cpu_a.o(.text) for OS_CPU_SR_Save
    pbuf.o(.text) refers to tcp.o(.text) for tcp_segs_free
    pbuf.o(.text) refers to tcpip.o(.text) for tcpip_callback_with_block
    pbuf.o(.text) refers to printfa.o(i.__0printf) for __2printf
    pbuf.o(.text) refers to memp.o(.text) for memp_free
    pbuf.o(.text) refers to mem.o(.text) for mem_free
    pbuf.o(.text) refers to pbuf.o(.data) for pbuf_free_ooseq_pending
    pbuf.o(.text) refers to tcp.o(.data) for tcp_active_pcbs
    pbuf.o(.text) refers to memcpya.o(.text) for __aeabi_memcpy
    pbuf.o(.text) refers to strlen.o(.text) for strlen
    raw.o(.text) refers to pbuf.o(.text) for pbuf_header
    raw.o(.text) refers to printfa.o(i.__0printf) for __2printf
    raw.o(.text) refers to ip.o(.text) for ip_route
    raw.o(.text) refers to memp.o(.text) for memp_free
    raw.o(.text) refers to memseta.o(.text) for __aeabi_memclr4
    raw.o(.text) refers to raw.o(.data) for raw_pcbs
    raw.o(.text) refers to ip.o(.data) for current_iphdr_dest
    sys.o(.text) refers to sys_arch.o(.text) for sys_sem_new
    tcp.o(.text) refers to pbuf.o(.text) for pbuf_free
    tcp.o(.text) refers to memp.o(.text) for memp_free
    tcp.o(.text) refers to printfa.o(i.__0printf) for __2printf
    tcp.o(.text) refers to tcp_out.o(.text) for tcp_zero_window_probe
    tcp.o(.text) refers to tcp.o(.data) for tcp_ticks
    tcp.o(.text) refers to tcp.o(.constdata) for tcp_persist_backoff
    tcp.o(.text) refers to timers.o(.text) for tcp_timer_needed
    tcp.o(.text) refers to ip.o(.text) for ip_route
    tcp.o(.text) refers to memseta.o(.text) for __aeabi_memclr4
    tcp.o(.constdata) refers to tcp.o(.conststring) for .conststring
    tcp.o(.constdata) refers to tcp.o(.data) for tcp_listen_pcbs
    tcp_in.o(.text) refers to def.o(.text) for lwip_ntohs
    tcp_in.o(.text) refers to tcp.o(.text) for tcp_segs_free
    tcp_in.o(.text) refers to pbuf.o(.text) for pbuf_realloc
    tcp_in.o(.text) refers to printfa.o(i.__0printf) for __2printf
    tcp_in.o(.text) refers to tcp_out.o(.text) for tcp_rexmit_fast
    tcp_in.o(.text) refers to tcp_in.o(.data) for seqno
    tcp_in.o(.text) refers to tcp.o(.data) for tcp_ticks
    tcp_in.o(.text) refers to tcp_in.o(.bss) for inseg
    tcp_in.o(.text) refers to ip.o(.data) for current_iphdr_src
    tcp_in.o(.text) refers to timers.o(.text) for tcp_timer_needed
    tcp_in.o(.text) refers to ip_addr.o(.text) for ip4_addr_isbroadcast
    tcp_in.o(.text) refers to memp.o(.text) for memp_free
    tcp_out.o(.text) refers to pbuf.o(.text) for pbuf_alloc
    tcp_out.o(.text) refers to printfa.o(i.__0printf) for __2printf
    tcp_out.o(.text) refers to def.o(.text) for lwip_htons
    tcp_out.o(.text) refers to memp.o(.text) for memp_malloc
    tcp_out.o(.text) refers to tcp.o(.text) for tcp_seg_free
    tcp_out.o(.text) refers to tcp_out.o(.constdata) for .constdata
    tcp_out.o(.text) refers to memcpya.o(.text) for __aeabi_memcpy
    tcp_out.o(.text) refers to ip.o(.text) for ip_output
    tcp_out.o(.text) refers to tcp.o(.data) for tcp_ticks
    tcp_out.o(.text) refers to tcp_in.o(.data) for tcp_input_pcb
    udp.o(.text) refers to pbuf.o(.text) for pbuf_header
    udp.o(.text) refers to ip_addr.o(.text) for ip4_addr_isbroadcast
    udp.o(.text) refers to def.o(.text) for lwip_ntohs
    udp.o(.text) refers to printfa.o(i.__0printf) for __2printf
    udp.o(.text) refers to icmp.o(.text) for icmp_dest_unreach
    udp.o(.text) refers to ip.o(.text) for ip_output_if
    udp.o(.text) refers to udp.o(.data) for udp_port
    udp.o(.text) refers to ip.o(.data) for current_iphdr_dest
    udp.o(.text) refers to memp.o(.text) for memp_free
    udp.o(.text) refers to memseta.o(.text) for __aeabi_memclr4
    timers.o(.text) refers to memp.o(.text) for memp_malloc
    timers.o(.text) refers to printfa.o(i.__0printf) for __2printf
    timers.o(.text) refers to tcp.o(.text) for tcp_tmr
    timers.o(.text) refers to ip_frag.o(.text) for ip_reass_tmr
    timers.o(.text) refers to etharp.o(.text) for etharp_tmr
    timers.o(.text) refers to sys_arch.o(.text) for sys_arch_mbox_fetch
    timers.o(.text) refers to timers.o(.data) for next_timeout
    timers.o(.text) refers to tcp.o(.data) for tcp_active_pcbs
    etharp.o(.text) refers to pbuf.o(.text) for pbuf_free
    etharp.o(.text) refers to printfa.o(i.__0printf) for __2printf
    etharp.o(.text) refers to ip_addr.o(.text) for ip4_addr_isbroadcast
    etharp.o(.text) refers to etharp.o(.bss) for arp_table
    etharp.o(.text) refers to etharp.o(.constdata) for .constdata
    etharp.o(.text) refers to def.o(.text) for lwip_htons
    etharp.o(.text) refers to memcmp.o(.text) for memcmp
    etharp.o(.text) refers to ip.o(.text) for ip_input
    etharp.o(.text) refers to etharp.o(.data) for etharp_cached_entry
    lwip.o(.text) refers to sys_arch.o(.text) for sys_sem_signal
    lwip.o(.text) refers to bsp.o(.text) for myPrintf
    lwip.o(.text) refers to ip_addr.o(.text) for ipaddr_ntoa
    lwip.o(.text) refers to printfa.o(i.__0sprintf) for __2sprintf
    lwip.o(.text) refers to mem.o(.text) for mem_init
    lwip.o(.text) refers to memp.o(.text) for memp_init
    lwip.o(.text) refers to netif.o(.text) for netif_init
    lwip.o(.text) refers to tcpip.o(.text) for tcpip_init
    lwip.o(.text) refers to ethernetif.o(.text) for Set_MAC_Address
    lwip.o(.text) refers to tcp.o(.text) for tcp_tmr
    lwip.o(.text) refers to etharp.o(.text) for etharp_tmr
    lwip.o(.text) refers to lwip.o(.bss) for netif
    lwip.o(.text) refers to lwip.o(.data) for IPaddress
    floor.o(i.__softfp_floor) refers (Special) to iusefp.o(.text) for __I$use$fp
    floor.o(i.__softfp_floor) refers to floor.o(i.floor) for floor
    floor.o(i.floor) refers (Special) to iusefp.o(.text) for __I$use$fp
    floor.o(i.floor) refers to dadd.o(.text) for __aeabi_dadd
    floor.o(i.floor) refers to cdrcmple.o(.text) for __aeabi_cdrcmple
    entry.o(.ARM.Collect$$$$00000000) refers (Special) to entry10a.o(.ARM.Collect$$$$0000000D) for __rt_final_cpp
    entry.o(.ARM.Collect$$$$00000000) refers (Special) to entry11a.o(.ARM.Collect$$$$0000000F) for __rt_final_exit
    entry.o(.ARM.Collect$$$$00000000) refers (Special) to entry7b.o(.ARM.Collect$$$$00000008) for _main_clock
    entry.o(.ARM.Collect$$$$00000000) refers (Special) to entry8b.o(.ARM.Collect$$$$0000000A) for _main_cpp_init
    entry.o(.ARM.Collect$$$$00000000) refers (Special) to entry9a.o(.ARM.Collect$$$$0000000B) for _main_init
    entry.o(.ARM.Collect$$$$00000000) refers (Special) to entry5.o(.ARM.Collect$$$$00000004) for _main_scatterload
    entry.o(.ARM.Collect$$$$00000000) refers (Special) to entry2.o(.ARM.Collect$$$$00000001) for _main_stk
    localtime.o(.text) refers to localtime.o(.bss) for .bss
    localtime.o(.text) refers to localtime.o(.constdata) for .constdata
    printfb.o(i.__0fprintf$bare) refers to printfb.o(i._printf_core) for _printf_core
    printfb.o(i.__0fprintf$bare) refers to bsp_usart.o(.text) for fputc
    printfb.o(i.__0printf$bare) refers to printfb.o(i._printf_core) for _printf_core
    printfb.o(i.__0printf$bare) refers to bsp_usart.o(.text) for fputc
    printfb.o(i.__0printf$bare) refers to stdout.o(.data) for __stdout
    printfb.o(i.__0snprintf$bare) refers to printfb.o(i._printf_core) for _printf_core
    printfb.o(i.__0snprintf$bare) refers to printfb.o(i._snputc) for _snputc
    printfb.o(i.__0sprintf$bare) refers to printfb.o(i._printf_core) for _printf_core
    printfb.o(i.__0sprintf$bare) refers to printfb.o(i._sputc) for _sputc
    printfb.o(i.__0vfprintf$bare) refers to printfb.o(i._printf_core) for _printf_core
    printfb.o(i.__0vfprintf$bare) refers to bsp_usart.o(.text) for fputc
    printfb.o(i.__0vprintf$bare) refers to printfb.o(i._printf_core) for _printf_core
    printfb.o(i.__0vprintf$bare) refers to bsp_usart.o(.text) for fputc
    printfb.o(i.__0vprintf$bare) refers to stdout.o(.data) for __stdout
    printfb.o(i.__0vsnprintf$bare) refers to printfb.o(i._printf_core) for _printf_core
    printfb.o(i.__0vsnprintf$bare) refers to printfb.o(i._snputc) for _snputc
    printfb.o(i.__0vsprintf$bare) refers to printfb.o(i._printf_core) for _printf_core
    printfb.o(i.__0vsprintf$bare) refers to printfb.o(i._sputc) for _sputc
    printf0.o(i.__0fprintf$0) refers to printf0.o(i._printf_core) for _printf_core
    printf0.o(i.__0fprintf$0) refers to bsp_usart.o(.text) for fputc
    printf0.o(i.__0printf$0) refers to printf0.o(i._printf_core) for _printf_core
    printf0.o(i.__0printf$0) refers to bsp_usart.o(.text) for fputc
    printf0.o(i.__0printf$0) refers to stdout.o(.data) for __stdout
    printf0.o(i.__0snprintf$0) refers to printf0.o(i._printf_core) for _printf_core
    printf0.o(i.__0snprintf$0) refers to printf0.o(i._snputc) for _snputc
    printf0.o(i.__0sprintf$0) refers to printf0.o(i._printf_core) for _printf_core
    printf0.o(i.__0sprintf$0) refers to printf0.o(i._sputc) for _sputc
    printf0.o(i.__0vfprintf$0) refers to printf0.o(i._printf_core) for _printf_core
    printf0.o(i.__0vfprintf$0) refers to bsp_usart.o(.text) for fputc
    printf0.o(i.__0vprintf$0) refers to printf0.o(i._printf_core) for _printf_core
    printf0.o(i.__0vprintf$0) refers to bsp_usart.o(.text) for fputc
    printf0.o(i.__0vprintf$0) refers to stdout.o(.data) for __stdout
    printf0.o(i.__0vsnprintf$0) refers to printf0.o(i._printf_core) for _printf_core
    printf0.o(i.__0vsnprintf$0) refers to printf0.o(i._snputc) for _snputc
    printf0.o(i.__0vsprintf$0) refers to printf0.o(i._printf_core) for _printf_core
    printf0.o(i.__0vsprintf$0) refers to printf0.o(i._sputc) for _sputc
    printf1.o(i.__0fprintf$1) refers to printf1.o(i._printf_core) for _printf_core
    printf1.o(i.__0fprintf$1) refers to bsp_usart.o(.text) for fputc
    printf1.o(i.__0printf$1) refers to printf1.o(i._printf_core) for _printf_core
    printf1.o(i.__0printf$1) refers to bsp_usart.o(.text) for fputc
    printf1.o(i.__0printf$1) refers to stdout.o(.data) for __stdout
    printf1.o(i.__0snprintf$1) refers to printf1.o(i._printf_core) for _printf_core
    printf1.o(i.__0snprintf$1) refers to printf1.o(i._snputc) for _snputc
    printf1.o(i.__0sprintf$1) refers to printf1.o(i._printf_core) for _printf_core
    printf1.o(i.__0sprintf$1) refers to printf1.o(i._sputc) for _sputc
    printf1.o(i.__0vfprintf$1) refers to printf1.o(i._printf_core) for _printf_core
    printf1.o(i.__0vfprintf$1) refers to bsp_usart.o(.text) for fputc
    printf1.o(i.__0vprintf$1) refers to printf1.o(i._printf_core) for _printf_core
    printf1.o(i.__0vprintf$1) refers to bsp_usart.o(.text) for fputc
    printf1.o(i.__0vprintf$1) refers to stdout.o(.data) for __stdout
    printf1.o(i.__0vsnprintf$1) refers to printf1.o(i._printf_core) for _printf_core
    printf1.o(i.__0vsnprintf$1) refers to printf1.o(i._snputc) for _snputc
    printf1.o(i.__0vsprintf$1) refers to printf1.o(i._printf_core) for _printf_core
    printf1.o(i.__0vsprintf$1) refers to printf1.o(i._sputc) for _sputc
    printf1.o(i._printf_core) refers to uidiv.o(.text) for __aeabi_uidivmod
    printf2.o(i.__0fprintf$2) refers to printf2.o(i._printf_core) for _printf_core
    printf2.o(i.__0fprintf$2) refers to bsp_usart.o(.text) for fputc
    printf2.o(i.__0printf$2) refers to printf2.o(i._printf_core) for _printf_core
    printf2.o(i.__0printf$2) refers to bsp_usart.o(.text) for fputc
    printf2.o(i.__0printf$2) refers to stdout.o(.data) for __stdout
    printf2.o(i.__0snprintf$2) refers to printf2.o(i._printf_core) for _printf_core
    printf2.o(i.__0snprintf$2) refers to printf2.o(i._snputc) for _snputc
    printf2.o(i.__0sprintf$2) refers to printf2.o(i._printf_core) for _printf_core
    printf2.o(i.__0sprintf$2) refers to printf2.o(i._sputc) for _sputc
    printf2.o(i.__0vfprintf$2) refers to printf2.o(i._printf_core) for _printf_core
    printf2.o(i.__0vfprintf$2) refers to bsp_usart.o(.text) for fputc
    printf2.o(i.__0vprintf$2) refers to printf2.o(i._printf_core) for _printf_core
    printf2.o(i.__0vprintf$2) refers to bsp_usart.o(.text) for fputc
    printf2.o(i.__0vprintf$2) refers to stdout.o(.data) for __stdout
    printf2.o(i.__0vsnprintf$2) refers to printf2.o(i._printf_core) for _printf_core
    printf2.o(i.__0vsnprintf$2) refers to printf2.o(i._snputc) for _snputc
    printf2.o(i.__0vsprintf$2) refers to printf2.o(i._printf_core) for _printf_core
    printf2.o(i.__0vsprintf$2) refers to printf2.o(i._sputc) for _sputc
    printf3.o(i.__0fprintf$3) refers to printf3.o(i._printf_core) for _printf_core
    printf3.o(i.__0fprintf$3) refers to bsp_usart.o(.text) for fputc
    printf3.o(i.__0printf$3) refers to printf3.o(i._printf_core) for _printf_core
    printf3.o(i.__0printf$3) refers to bsp_usart.o(.text) for fputc
    printf3.o(i.__0printf$3) refers to stdout.o(.data) for __stdout
    printf3.o(i.__0snprintf$3) refers to printf3.o(i._printf_core) for _printf_core
    printf3.o(i.__0snprintf$3) refers to printf3.o(i._snputc) for _snputc
    printf3.o(i.__0sprintf$3) refers to printf3.o(i._printf_core) for _printf_core
    printf3.o(i.__0sprintf$3) refers to printf3.o(i._sputc) for _sputc
    printf3.o(i.__0vfprintf$3) refers to printf3.o(i._printf_core) for _printf_core
    printf3.o(i.__0vfprintf$3) refers to bsp_usart.o(.text) for fputc
    printf3.o(i.__0vprintf$3) refers to printf3.o(i._printf_core) for _printf_core
    printf3.o(i.__0vprintf$3) refers to bsp_usart.o(.text) for fputc
    printf3.o(i.__0vprintf$3) refers to stdout.o(.data) for __stdout
    printf3.o(i.__0vsnprintf$3) refers to printf3.o(i._printf_core) for _printf_core
    printf3.o(i.__0vsnprintf$3) refers to printf3.o(i._snputc) for _snputc
    printf3.o(i.__0vsprintf$3) refers to printf3.o(i._printf_core) for _printf_core
    printf3.o(i.__0vsprintf$3) refers to printf3.o(i._sputc) for _sputc
    printf3.o(i._printf_core) refers to uidiv.o(.text) for __aeabi_uidivmod
    printf4.o(i.__0fprintf$4) refers to printf4.o(i._printf_core) for _printf_core
    printf4.o(i.__0fprintf$4) refers to bsp_usart.o(.text) for fputc
    printf4.o(i.__0printf$4) refers to printf4.o(i._printf_core) for _printf_core
    printf4.o(i.__0printf$4) refers to bsp_usart.o(.text) for fputc
    printf4.o(i.__0printf$4) refers to stdout.o(.data) for __stdout
    printf4.o(i.__0snprintf$4) refers to printf4.o(i._printf_core) for _printf_core
    printf4.o(i.__0snprintf$4) refers to printf4.o(i._snputc) for _snputc
    printf4.o(i.__0sprintf$4) refers to printf4.o(i._printf_core) for _printf_core
    printf4.o(i.__0sprintf$4) refers to printf4.o(i._sputc) for _sputc
    printf4.o(i.__0vfprintf$4) refers to printf4.o(i._printf_core) for _printf_core
    printf4.o(i.__0vfprintf$4) refers to bsp_usart.o(.text) for fputc
    printf4.o(i.__0vprintf$4) refers to printf4.o(i._printf_core) for _printf_core
    printf4.o(i.__0vprintf$4) refers to bsp_usart.o(.text) for fputc
    printf4.o(i.__0vprintf$4) refers to stdout.o(.data) for __stdout
    printf4.o(i.__0vsnprintf$4) refers to printf4.o(i._printf_core) for _printf_core
    printf4.o(i.__0vsnprintf$4) refers to printf4.o(i._snputc) for _snputc
    printf4.o(i.__0vsprintf$4) refers to printf4.o(i._printf_core) for _printf_core
    printf4.o(i.__0vsprintf$4) refers to printf4.o(i._sputc) for _sputc
    printf4.o(i._printf_core) refers to uldiv.o(.text) for __aeabi_uldivmod
    printf5.o(i.__0fprintf$5) refers to printf5.o(i._printf_core) for _printf_core
    printf5.o(i.__0fprintf$5) refers to bsp_usart.o(.text) for fputc
    printf5.o(i.__0printf$5) refers to printf5.o(i._printf_core) for _printf_core
    printf5.o(i.__0printf$5) refers to bsp_usart.o(.text) for fputc
    printf5.o(i.__0printf$5) refers to stdout.o(.data) for __stdout
    printf5.o(i.__0snprintf$5) refers to printf5.o(i._printf_core) for _printf_core
    printf5.o(i.__0snprintf$5) refers to printf5.o(i._snputc) for _snputc
    printf5.o(i.__0sprintf$5) refers to printf5.o(i._printf_core) for _printf_core
    printf5.o(i.__0sprintf$5) refers to printf5.o(i._sputc) for _sputc
    printf5.o(i.__0vfprintf$5) refers to printf5.o(i._printf_core) for _printf_core
    printf5.o(i.__0vfprintf$5) refers to bsp_usart.o(.text) for fputc
    printf5.o(i.__0vprintf$5) refers to printf5.o(i._printf_core) for _printf_core
    printf5.o(i.__0vprintf$5) refers to bsp_usart.o(.text) for fputc
    printf5.o(i.__0vprintf$5) refers to stdout.o(.data) for __stdout
    printf5.o(i.__0vsnprintf$5) refers to printf5.o(i._printf_core) for _printf_core
    printf5.o(i.__0vsnprintf$5) refers to printf5.o(i._snputc) for _snputc
    printf5.o(i.__0vsprintf$5) refers to printf5.o(i._printf_core) for _printf_core
    printf5.o(i.__0vsprintf$5) refers to printf5.o(i._sputc) for _sputc
    printf5.o(i._printf_core) refers to uldiv.o(.text) for __aeabi_uldivmod
    printf6.o(i.__0fprintf$6) refers to printf6.o(i._printf_core) for _printf_core
    printf6.o(i.__0fprintf$6) refers to bsp_usart.o(.text) for fputc
    printf6.o(i.__0printf$6) refers to printf6.o(i._printf_core) for _printf_core
    printf6.o(i.__0printf$6) refers to bsp_usart.o(.text) for fputc
    printf6.o(i.__0printf$6) refers to stdout.o(.data) for __stdout
    printf6.o(i.__0snprintf$6) refers to printf6.o(i._printf_core) for _printf_core
    printf6.o(i.__0snprintf$6) refers to printf6.o(i._snputc) for _snputc
    printf6.o(i.__0sprintf$6) refers to printf6.o(i._printf_core) for _printf_core
    printf6.o(i.__0sprintf$6) refers to printf6.o(i._sputc) for _sputc
    printf6.o(i.__0vfprintf$6) refers to printf6.o(i._printf_core) for _printf_core
    printf6.o(i.__0vfprintf$6) refers to bsp_usart.o(.text) for fputc
    printf6.o(i.__0vprintf$6) refers to printf6.o(i._printf_core) for _printf_core
    printf6.o(i.__0vprintf$6) refers to bsp_usart.o(.text) for fputc
    printf6.o(i.__0vprintf$6) refers to stdout.o(.data) for __stdout
    printf6.o(i.__0vsnprintf$6) refers to printf6.o(i._printf_core) for _printf_core
    printf6.o(i.__0vsnprintf$6) refers to printf6.o(i._snputc) for _snputc
    printf6.o(i.__0vsprintf$6) refers to printf6.o(i._printf_core) for _printf_core
    printf6.o(i.__0vsprintf$6) refers to printf6.o(i._sputc) for _sputc
    printf6.o(i._printf_core) refers to printf6.o(i._printf_pre_padding) for _printf_pre_padding
    printf6.o(i._printf_core) refers to uidiv.o(.text) for __aeabi_uidivmod
    printf6.o(i._printf_core) refers to printf6.o(i._printf_post_padding) for _printf_post_padding
    printf7.o(i.__0fprintf$7) refers to printf7.o(i._printf_core) for _printf_core
    printf7.o(i.__0fprintf$7) refers to bsp_usart.o(.text) for fputc
    printf7.o(i.__0printf$7) refers to printf7.o(i._printf_core) for _printf_core
    printf7.o(i.__0printf$7) refers to bsp_usart.o(.text) for fputc
    printf7.o(i.__0printf$7) refers to stdout.o(.data) for __stdout
    printf7.o(i.__0snprintf$7) refers to printf7.o(i._printf_core) for _printf_core
    printf7.o(i.__0snprintf$7) refers to printf7.o(i._snputc) for _snputc
    printf7.o(i.__0sprintf$7) refers to printf7.o(i._printf_core) for _printf_core
    printf7.o(i.__0sprintf$7) refers to printf7.o(i._sputc) for _sputc
    printf7.o(i.__0vfprintf$7) refers to printf7.o(i._printf_core) for _printf_core
    printf7.o(i.__0vfprintf$7) refers to bsp_usart.o(.text) for fputc
    printf7.o(i.__0vprintf$7) refers to printf7.o(i._printf_core) for _printf_core
    printf7.o(i.__0vprintf$7) refers to bsp_usart.o(.text) for fputc
    printf7.o(i.__0vprintf$7) refers to stdout.o(.data) for __stdout
    printf7.o(i.__0vsnprintf$7) refers to printf7.o(i._printf_core) for _printf_core
    printf7.o(i.__0vsnprintf$7) refers to printf7.o(i._snputc) for _snputc
    printf7.o(i.__0vsprintf$7) refers to printf7.o(i._printf_core) for _printf_core
    printf7.o(i.__0vsprintf$7) refers to printf7.o(i._sputc) for _sputc
    printf7.o(i._printf_core) refers to printf7.o(i._printf_pre_padding) for _printf_pre_padding
    printf7.o(i._printf_core) refers to uldiv.o(.text) for __aeabi_uldivmod
    printf7.o(i._printf_core) refers to printf7.o(i._printf_post_padding) for _printf_post_padding
    printf8.o(i.__0fprintf$8) refers to printf8.o(i._printf_core) for _printf_core
    printf8.o(i.__0fprintf$8) refers to bsp_usart.o(.text) for fputc
    printf8.o(i.__0printf$8) refers to printf8.o(i._printf_core) for _printf_core
    printf8.o(i.__0printf$8) refers to bsp_usart.o(.text) for fputc
    printf8.o(i.__0printf$8) refers to stdout.o(.data) for __stdout
    printf8.o(i.__0snprintf$8) refers to printf8.o(i._printf_core) for _printf_core
    printf8.o(i.__0snprintf$8) refers to printf8.o(i._snputc) for _snputc
    printf8.o(i.__0sprintf$8) refers to printf8.o(i._printf_core) for _printf_core
    printf8.o(i.__0sprintf$8) refers to printf8.o(i._sputc) for _sputc
    printf8.o(i.__0vfprintf$8) refers to printf8.o(i._printf_core) for _printf_core
    printf8.o(i.__0vfprintf$8) refers to bsp_usart.o(.text) for fputc
    printf8.o(i.__0vprintf$8) refers to printf8.o(i._printf_core) for _printf_core
    printf8.o(i.__0vprintf$8) refers to bsp_usart.o(.text) for fputc
    printf8.o(i.__0vprintf$8) refers to stdout.o(.data) for __stdout
    printf8.o(i.__0vsnprintf$8) refers to printf8.o(i._printf_core) for _printf_core
    printf8.o(i.__0vsnprintf$8) refers to printf8.o(i._snputc) for _snputc
    printf8.o(i.__0vsprintf$8) refers to printf8.o(i._printf_core) for _printf_core
    printf8.o(i.__0vsprintf$8) refers to printf8.o(i._sputc) for _sputc
    printf8.o(i._printf_core) refers to printf8.o(i._printf_pre_padding) for _printf_pre_padding
    printf8.o(i._printf_core) refers to uldiv.o(.text) for __aeabi_uldivmod
    printf8.o(i._printf_core) refers to printf8.o(i._printf_post_padding) for _printf_post_padding
    printfa.o(i.__0fprintf) refers (Special) to iusefp.o(.text) for __I$use$fp
    printfa.o(i.__0fprintf) refers to printfa.o(i._printf_core) for _printf_core
    printfa.o(i.__0fprintf) refers to bsp_usart.o(.text) for fputc
    printfa.o(i.__0printf) refers (Special) to iusefp.o(.text) for __I$use$fp
    printfa.o(i.__0printf) refers to printfa.o(i._printf_core) for _printf_core
    printfa.o(i.__0printf) refers to bsp_usart.o(.text) for fputc
    printfa.o(i.__0printf) refers to stdout.o(.data) for __stdout
    printfa.o(i.__0snprintf) refers (Special) to iusefp.o(.text) for __I$use$fp
    printfa.o(i.__0snprintf) refers to printfa.o(i._printf_core) for _printf_core
    printfa.o(i.__0snprintf) refers to printfa.o(i._snputc) for _snputc
    printfa.o(i.__0sprintf) refers (Special) to iusefp.o(.text) for __I$use$fp
    printfa.o(i.__0sprintf) refers to printfa.o(i._printf_core) for _printf_core
    printfa.o(i.__0sprintf) refers to printfa.o(i._sputc) for _sputc
    printfa.o(i.__0vfprintf) refers (Special) to iusefp.o(.text) for __I$use$fp
    printfa.o(i.__0vfprintf) refers to printfa.o(i._printf_core) for _printf_core
    printfa.o(i.__0vfprintf) refers to bsp_usart.o(.text) for fputc
    printfa.o(i.__0vprintf) refers (Special) to iusefp.o(.text) for __I$use$fp
    printfa.o(i.__0vprintf) refers to printfa.o(i._printf_core) for _printf_core
    printfa.o(i.__0vprintf) refers to bsp_usart.o(.text) for fputc
    printfa.o(i.__0vprintf) refers to stdout.o(.data) for __stdout
    printfa.o(i.__0vsnprintf) refers (Special) to iusefp.o(.text) for __I$use$fp
    printfa.o(i.__0vsnprintf) refers to printfa.o(i._printf_core) for _printf_core
    printfa.o(i.__0vsnprintf) refers to printfa.o(i._snputc) for _snputc
    printfa.o(i.__0vsprintf) refers (Special) to iusefp.o(.text) for __I$use$fp
    printfa.o(i.__0vsprintf) refers to printfa.o(i._printf_core) for _printf_core
    printfa.o(i.__0vsprintf) refers to printfa.o(i._sputc) for _sputc
    printfa.o(i._fp_digits) refers (Special) to iusefp.o(.text) for __I$use$fp
    printfa.o(i._fp_digits) refers to dmul.o(.text) for __aeabi_dmul
    printfa.o(i._fp_digits) refers to ddiv.o(.text) for __aeabi_ddiv
    printfa.o(i._fp_digits) refers to cdrcmple.o(.text) for __aeabi_cdrcmple
    printfa.o(i._fp_digits) refers to dadd.o(.text) for __aeabi_dadd
    printfa.o(i._fp_digits) refers to dfixul.o(.text) for __aeabi_d2ulz
    printfa.o(i._fp_digits) refers to uldiv.o(.text) for __aeabi_uldivmod
    printfa.o(i._printf_core) refers (Special) to iusefp.o(.text) for __I$use$fp
    printfa.o(i._printf_core) refers to printfa.o(i._printf_pre_padding) for _printf_pre_padding
    printfa.o(i._printf_core) refers to uldiv.o(.text) for __aeabi_uldivmod
    printfa.o(i._printf_core) refers to printfa.o(i._printf_post_padding) for _printf_post_padding
    printfa.o(i._printf_core) refers to printfa.o(i._fp_digits) for _fp_digits
    printfa.o(i._printf_core) refers to uidiv.o(.text) for __aeabi_uidivmod
    printfa.o(i._printf_post_padding) refers (Special) to iusefp.o(.text) for __I$use$fp
    printfa.o(i._printf_pre_padding) refers (Special) to iusefp.o(.text) for __I$use$fp
    printfa.o(i._snputc) refers (Special) to iusefp.o(.text) for __I$use$fp
    printfa.o(i._sputc) refers (Special) to iusefp.o(.text) for __I$use$fp
    __0sscanf.o(.text) refers to scanf_char.o(.text) for __vfscanf_char
    __0sscanf.o(.text) refers to _sgetc.o(.text) for _sgetc
    _scanf_int.o(.text) refers to _chval.o(.text) for _chval
    atoi.o(.text) refers to errno.o(i.__aeabi_errno_addr) for __aeabi_errno_addr
    atoi.o(.text) refers to strtol.o(.text) for strtol
    fadd.o(.text) refers (Special) to iusefp.o(.text) for __I$use$fp
    fadd.o(.text) refers to fepilogue.o(.text) for _float_epilogue
    fmul.o(.text) refers (Special) to iusefp.o(.text) for __I$use$fp
    fdiv.o(.text) refers (Special) to iusefp.o(.text) for __I$use$fp
    fdiv.o(.text) refers to fepilogue.o(.text) for _float_round
    dadd.o(.text) refers (Special) to iusefp.o(.text) for __I$use$fp
    dadd.o(.text) refers to llshl.o(.text) for __aeabi_llsl
    dadd.o(.text) refers to llsshr.o(.text) for __aeabi_lasr
    dadd.o(.text) refers to depilogue.o(.text) for _double_epilogue
    dmul.o(.text) refers (Special) to iusefp.o(.text) for __I$use$fp
    dmul.o(.text) refers to depilogue.o(.text) for _double_epilogue
    ddiv.o(.text) refers (Special) to iusefp.o(.text) for __I$use$fp
    ddiv.o(.text) refers to depilogue.o(.text) for _double_round
    fflti.o(.text) refers (Special) to iusefp.o(.text) for __I$use$fp
    fflti.o(.text) refers to fepilogue.o(.text) for _float_epilogue
    dflti.o(.text) refers (Special) to iusefp.o(.text) for __I$use$fp
    dflti.o(.text) refers to depilogue.o(.text) for _double_epilogue
    ffixi.o(.text) refers (Special) to iusefp.o(.text) for __I$use$fp
    dfixi.o(.text) refers (Special) to iusefp.o(.text) for __I$use$fp
    dfixi.o(.text) refers to llushr.o(.text) for __aeabi_llsr
    f2d.o(.text) refers (Special) to iusefp.o(.text) for __I$use$fp
    cdcmple.o(.text) refers (Special) to iusefp.o(.text) for __I$use$fp
    d2f.o(.text) refers (Special) to iusefp.o(.text) for __I$use$fp
    d2f.o(.text) refers to fepilogue.o(.text) for _float_round
    cfcmple.o(.text) refers (Special) to iusefp.o(.text) for __I$use$fp
    cfrcmple.o(.text) refers (Special) to iusefp.o(.text) for __I$use$fp
    entry2.o(.ARM.Collect$$$$00000001) refers to entry2.o(.ARM.Collect$$$$00002712) for __lit__00000000
    entry2.o(.ARM.Collect$$$$00002712) refers to startup_stm32f10x_cl.o(STACK) for __initial_sp
    entry2.o(__vectab_stack_and_reset_area) refers to startup_stm32f10x_cl.o(STACK) for __initial_sp
    entry2.o(__vectab_stack_and_reset_area) refers to entry.o(.ARM.Collect$$$$00000000) for __main
    entry5.o(.ARM.Collect$$$$00000004) refers to init.o(.text) for __scatterload
    entry9a.o(.ARM.Collect$$$$0000000B) refers to main.o(.text) for main
    entry9b.o(.ARM.Collect$$$$0000000C) refers to main.o(.text) for main
    uldiv.o(.text) refers to llushr.o(.text) for __aeabi_llsr
    uldiv.o(.text) refers to llshl.o(.text) for __aeabi_llsl
    errno.o(i.__aeabi_errno_addr) refers to errno.o(.data) for .data
    errno.o(i.__read_errno) refers to errno.o(.data) for .data
    errno.o(i.__set_errno) refers to errno.o(.data) for .data
    scanf_char.o(.text) refers to _scanf.o(.text) for __vfscanf
    scanf_char.o(.text) refers to isspace_o.o(.text) for isspace
    strtol.o(.text) refers to ctype_o.o(.text) for __rt_ctype_table
    strtol.o(.text) refers to _strtoul.o(.text) for _strtoul
    strtol.o(.text) refers to errno.o(i.__aeabi_errno_addr) for __aeabi_errno_addr
    depilogue.o(.text) refers to llshl.o(.text) for __aeabi_llsl
    depilogue.o(.text) refers to llushr.o(.text) for __aeabi_llsr
    dfixul.o(.text) refers to llushr.o(.text) for __aeabi_llsr
    dfixul.o(.text) refers to llshl.o(.text) for __aeabi_llsl
    init.o(.text) refers to entry5.o(.ARM.Collect$$$$00000004) for __main_after_scatterload
    isspace_c.o(.text) refers to ctype_c.o(.text) for __ctype_lookup
    ctype_o.o(.text) refers to ctype_o.o(.constdata) for .constdata
    ctype_o.o(.constdata) refers to ctype_o.o(.constdata) for __ctype_table
    isalnum_o.o(.text) refers to ctype_o.o(.text) for __rt_ctype_table
    isalpha_o.o(.text) refers to ctype_o.o(.text) for __rt_ctype_table
    isblank_o.o(.text) refers to ctype_o.o(.constdata) for __ctype_table
    iscntrl_o.o(.text) refers to ctype_o.o(.text) for __rt_ctype_table
    isdigit_o.o(.text) refers to ctype_o.o(.text) for __rt_ctype_table
    isgraph_o.o(.text) refers to ctype_o.o(.text) for __rt_ctype_table
    islower_o.o(.text) refers to ctype_o.o(.text) for __rt_ctype_table
    isprint_o.o(.text) refers to ctype_o.o(.text) for __rt_ctype_table
    ispunct_o.o(.text) refers to ctype_o.o(.text) for __rt_ctype_table
    isspace_o.o(.text) refers to ctype_o.o(.text) for __rt_ctype_table
    isupper_o.o(.text) refers to ctype_o.o(.text) for __rt_ctype_table
    isxdigit_o.o(.text) refers to ctype_o.o(.text) for __rt_ctype_table
    _scanf.o(.text) refers (Weak) to _scanf_int.o(.text) for _scanf_int
    _strtoul.o(.text) refers to _chval.o(.text) for _chval
    _strtoul.o(.text) refers to errno.o(i.__aeabi_errno_addr) for __aeabi_errno_addr
    ctype_c.o(.text) refers to ctype_c.o(.constdata) for .constdata


==============================================================================

Removing Unused input sections from the image.

    Removing core_cm3.o(.emb_text), (32 bytes).
    Removing startup_stm32f10x_cl.o(HEAP), (512 bytes).
    Removing stm32f10x_adc.o(.text), (1102 bytes).
    Removing stm32f10x_bkp.o(.text), (196 bytes).
    Removing stm32f10x_cec.o(.text), (288 bytes).
    Removing stm32f10x_crc.o(.text), (72 bytes).
    Removing stm32f10x_dac.o(.text), (396 bytes).
    Removing stm32f10x_dbgmcu.o(.text), (48 bytes).
    Removing stm32f10x_dma.o(.text), (592 bytes).
    Removing stm32f10x_fsmc.o(.text), (1560 bytes).
    Removing stm32f10x_i2c.o(.text), (1028 bytes).
    Removing stm32f10x_rtc.o(.text), (324 bytes).
    Removing stm32f10x_sdio.o(.text), (472 bytes).
    Removing stm32f10x_wwdg.o(.text), (136 bytes).
    Removing os_dbg.o(.constdata), (2 bytes).
    Removing os_mutex.o(.text), (1572 bytes).
    Removing sys.o(.text), (36 bytes).

17 unused section(s) (total 8368 bytes) removed from the image.

==============================================================================

Image Symbol Table

    Local Symbols

    Symbol Name                              Value     Ov Type        Size  Object(Section)

    ../clib/../cmprslib/zerorunl2.c          0x00000000   Number         0  __dczerorl2.o ABSOLUTE
    ../clib/microlib/ctype/ctype.c           0x00000000   Number         0  isalpha_o.o ABSOLUTE
    ../clib/microlib/ctype/ctype.c           0x00000000   Number         0  isupper_o.o ABSOLUTE
    ../clib/microlib/ctype/ctype.c           0x00000000   Number         0  isspace_o.o ABSOLUTE
    ../clib/microlib/ctype/ctype.c           0x00000000   Number         0  ispunct_o.o ABSOLUTE
    ../clib/microlib/ctype/ctype.c           0x00000000   Number         0  isprint_o.o ABSOLUTE
    ../clib/microlib/ctype/ctype.c           0x00000000   Number         0  islower_o.o ABSOLUTE
    ../clib/microlib/ctype/ctype.c           0x00000000   Number         0  isgraph_o.o ABSOLUTE
    ../clib/microlib/ctype/ctype.c           0x00000000   Number         0  ctype_c.o ABSOLUTE
    ../clib/microlib/ctype/ctype.c           0x00000000   Number         0  isxdigit_o.o ABSOLUTE
    ../clib/microlib/ctype/ctype.c           0x00000000   Number         0  isdigit_o.o ABSOLUTE
    ../clib/microlib/ctype/ctype.c           0x00000000   Number         0  iscntrl_o.o ABSOLUTE
    ../clib/microlib/ctype/ctype.c           0x00000000   Number         0  isblank_o.o ABSOLUTE
    ../clib/microlib/ctype/ctype.c           0x00000000   Number         0  isalnum_o.o ABSOLUTE
    ../clib/microlib/ctype/ctype.c           0x00000000   Number         0  ctype_o.o ABSOLUTE
    ../clib/microlib/ctype/ctype.c           0x00000000   Number         0  isspace_c.o ABSOLUTE
    ../clib/microlib/division.c              0x00000000   Number         0  uidiv.o ABSOLUTE
    ../clib/microlib/division.c              0x00000000   Number         0  uldiv.o ABSOLUTE
    ../clib/microlib/errno.c                 0x00000000   Number         0  errno.o ABSOLUTE
    ../clib/microlib/init/entry.s            0x00000000   Number         0  entry10a.o ABSOLUTE
    ../clib/microlib/init/entry.s            0x00000000   Number         0  entry9b.o ABSOLUTE
    ../clib/microlib/init/entry.s            0x00000000   Number         0  entry8b.o ABSOLUTE
    ../clib/microlib/init/entry.s            0x00000000   Number         0  entry8a.o ABSOLUTE
    ../clib/microlib/init/entry.s            0x00000000   Number         0  entry11b.o ABSOLUTE
    ../clib/microlib/init/entry.s            0x00000000   Number         0  entry7b.o ABSOLUTE
    ../clib/microlib/init/entry.s            0x00000000   Number         0  entry7a.o ABSOLUTE
    ../clib/microlib/init/entry.s            0x00000000   Number         0  entry5.o ABSOLUTE
    ../clib/microlib/init/entry.s            0x00000000   Number         0  entry2.o ABSOLUTE
    ../clib/microlib/init/entry.s            0x00000000   Number         0  entry9a.o ABSOLUTE
    ../clib/microlib/init/entry.s            0x00000000   Number         0  entry11a.o ABSOLUTE
    ../clib/microlib/init/entry.s            0x00000000   Number         0  entry.o ABSOLUTE
    ../clib/microlib/init/entry.s            0x00000000   Number         0  entry10b.o ABSOLUTE
    ../clib/microlib/longlong.c              0x00000000   Number         0  llsshr.o ABSOLUTE
    ../clib/microlib/longlong.c              0x00000000   Number         0  llushr.o ABSOLUTE
    ../clib/microlib/longlong.c              0x00000000   Number         0  llshl.o ABSOLUTE
    ../clib/microlib/printf/printf.c         0x00000000   Number         0  printf3.o ABSOLUTE
    ../clib/microlib/printf/printf.c         0x00000000   Number         0  printfa.o ABSOLUTE
    ../clib/microlib/printf/printf.c         0x00000000   Number         0  printf8.o ABSOLUTE
    ../clib/microlib/printf/printf.c         0x00000000   Number         0  printf7.o ABSOLUTE
    ../clib/microlib/printf/printf.c         0x00000000   Number         0  printf4.o ABSOLUTE
    ../clib/microlib/printf/printf.c         0x00000000   Number         0  printf5.o ABSOLUTE
    ../clib/microlib/printf/printf.c         0x00000000   Number         0  printfb.o ABSOLUTE
    ../clib/microlib/printf/printf.c         0x00000000   Number         0  printf0.o ABSOLUTE
    ../clib/microlib/printf/printf.c         0x00000000   Number         0  printf6.o ABSOLUTE
    ../clib/microlib/printf/printf.c         0x00000000   Number         0  printf1.o ABSOLUTE
    ../clib/microlib/printf/printf.c         0x00000000   Number         0  printf2.o ABSOLUTE
    ../clib/microlib/printf/stubs.s          0x00000000   Number         0  stubs.o ABSOLUTE
    ../clib/microlib/stdio/streams.c         0x00000000   Number         0  stdout.o ABSOLUTE
    ../clib/microlib/string/memcmp.c         0x00000000   Number         0  memcmp.o ABSOLUTE
    ../clib/microlib/string/memcpy.c         0x00000000   Number         0  memcpya.o ABSOLUTE
    ../clib/microlib/string/memcpy.c         0x00000000   Number         0  memcpyb.o ABSOLUTE
    ../clib/microlib/string/memset.c         0x00000000   Number         0  memseta.o ABSOLUTE
    ../clib/microlib/string/strcpy.c         0x00000000   Number         0  strcpy.o ABSOLUTE
    ../clib/microlib/string/strlen.c         0x00000000   Number         0  strlen.o ABSOLUTE
    ../clib/microlib/string/strncmp.c        0x00000000   Number         0  strncmp.o ABSOLUTE
    ../clib/microlib/string/strstr.c         0x00000000   Number         0  strstr.o ABSOLUTE
    ../clib/microlib/stubs.s                 0x00000000   Number         0  iusefp.o ABSOLUTE
    ../clib/microlib/time/localtime.c        0x00000000   Number         0  localtime.o ABSOLUTE
    ../clib/scanf.c                          0x00000000   Number         0  _chval.o ABSOLUTE
    ../clib/scanf.c                          0x00000000   Number         0  __0sscanf.o ABSOLUTE
    ../clib/scanf.c                          0x00000000   Number         0  scanf_char.o ABSOLUTE
    ../clib/scanf.c                          0x00000000   Number         0  _sgetc.o ABSOLUTE
    ../clib/scanf.c                          0x00000000   Number         0  _scanf.o ABSOLUTE
    ../clib/scanf.c                          0x00000000   Number         0  strtol.o ABSOLUTE
    ../clib/scanf.c                          0x00000000   Number         0  atoi.o ABSOLUTE
    ../clib/scanf.c                          0x00000000   Number         0  _strtoul.o ABSOLUTE
    ../clib/scanf.c                          0x00000000   Number         0  _scanf_int.o ABSOLUTE
    ../fplib/microlib/d2f.c                  0x00000000   Number         0  d2f.o ABSOLUTE
    ../fplib/microlib/f2d.c                  0x00000000   Number         0  f2d.o ABSOLUTE
    ../fplib/microlib/fpadd.c                0x00000000   Number         0  dadd.o ABSOLUTE
    ../fplib/microlib/fpadd.c                0x00000000   Number         0  fadd.o ABSOLUTE
    ../fplib/microlib/fpdiv.c                0x00000000   Number         0  fdiv.o ABSOLUTE
    ../fplib/microlib/fpdiv.c                0x00000000   Number         0  ddiv.o ABSOLUTE
    ../fplib/microlib/fpepilogue.c           0x00000000   Number         0  fepilogue.o ABSOLUTE
    ../fplib/microlib/fpepilogue.c           0x00000000   Number         0  depilogue.o ABSOLUTE
    ../fplib/microlib/fpfix.c                0x00000000   Number         0  dfixi.o ABSOLUTE
    ../fplib/microlib/fpfix.c                0x00000000   Number         0  ffixi.o ABSOLUTE
    ../fplib/microlib/fpfix.c                0x00000000   Number         0  dfixul.o ABSOLUTE
    ../fplib/microlib/fpflt.c                0x00000000   Number         0  dflti.o ABSOLUTE
    ../fplib/microlib/fpflt.c                0x00000000   Number         0  fflti.o ABSOLUTE
    ../fplib/microlib/fpmul.c                0x00000000   Number         0  fmul.o ABSOLUTE
    ../fplib/microlib/fpmul.c                0x00000000   Number         0  dmul.o ABSOLUTE
    ../mathlib/floor.c                       0x00000000   Number         0  floor.o ABSOLUTE
    ..\\src\\CORE\\core_cm3.c                0x00000000   Number         0  core_cm3.o ABSOLUTE
    ..\src\APP\Patrol_control.c              0x00000000   Number         0  patrol_control.o ABSOLUTE
    ..\src\APP\hal_process_COLLECT.c         0x00000000   Number         0  hal_process_collect.o ABSOLUTE
    ..\src\APP\hal_process_CONTROL.c         0x00000000   Number         0  hal_process_control.o ABSOLUTE
    ..\src\APP\hal_process_DEBUG.c           0x00000000   Number         0  hal_process_debug.o ABSOLUTE
    ..\src\APP\hal_process_SERVES.c          0x00000000   Number         0  hal_process_serves.o ABSOLUTE
    ..\src\BSP\BSP.c                         0x00000000   Number         0  bsp.o ABSOLUTE
    ..\src\BSP\bsp_can.c                     0x00000000   Number         0  bsp_can.o ABSOLUTE
    ..\src\BSP\bsp_eth.c                     0x00000000   Number         0  bsp_eth.o ABSOLUTE
    ..\src\BSP\bsp_spi.c                     0x00000000   Number         0  bsp_spi.o ABSOLUTE
    ..\src\BSP\bsp_tim.c                     0x00000000   Number         0  bsp_tim.o ABSOLUTE
    ..\src\BSP\bsp_usart.c                   0x00000000   Number         0  bsp_usart.o ABSOLUTE
    ..\src\CORE\core_cm3.c                   0x00000000   Number         0  core_cm3.o ABSOLUTE
    ..\src\CORE\startup_stm32f10x_cl.s       0x00000000   Number         0  startup_stm32f10x_cl.o ABSOLUTE
    ..\src\CORE\stm32f10x_it.c               0x00000000   Number         0  stm32f10x_it.o ABSOLUTE
    ..\src\CORE\system_stm32f10x.c           0x00000000   Number         0  system_stm32f10x.o ABSOLUTE
    ..\src\FWIB\misc.c                       0x00000000   Number         0  misc.o ABSOLUTE
    ..\src\FWIB\stm32_eth.c                  0x00000000   Number         0  stm32_eth.o ABSOLUTE
    ..\src\FWIB\stm32f10x_adc.c              0x00000000   Number         0  stm32f10x_adc.o ABSOLUTE
    ..\src\FWIB\stm32f10x_bkp.c              0x00000000   Number         0  stm32f10x_bkp.o ABSOLUTE
    ..\src\FWIB\stm32f10x_can.c              0x00000000   Number         0  stm32f10x_can.o ABSOLUTE
    ..\src\FWIB\stm32f10x_cec.c              0x00000000   Number         0  stm32f10x_cec.o ABSOLUTE
    ..\src\FWIB\stm32f10x_crc.c              0x00000000   Number         0  stm32f10x_crc.o ABSOLUTE
    ..\src\FWIB\stm32f10x_dac.c              0x00000000   Number         0  stm32f10x_dac.o ABSOLUTE
    ..\src\FWIB\stm32f10x_dbgmcu.c           0x00000000   Number         0  stm32f10x_dbgmcu.o ABSOLUTE
    ..\src\FWIB\stm32f10x_dma.c              0x00000000   Number         0  stm32f10x_dma.o ABSOLUTE
    ..\src\FWIB\stm32f10x_exti.c             0x00000000   Number         0  stm32f10x_exti.o ABSOLUTE
    ..\src\FWIB\stm32f10x_flash.c            0x00000000   Number         0  stm32f10x_flash.o ABSOLUTE
    ..\src\FWIB\stm32f10x_fsmc.c             0x00000000   Number         0  stm32f10x_fsmc.o ABSOLUTE
    ..\src\FWIB\stm32f10x_gpio.c             0x00000000   Number         0  stm32f10x_gpio.o ABSOLUTE
    ..\src\FWIB\stm32f10x_i2c.c              0x00000000   Number         0  stm32f10x_i2c.o ABSOLUTE
    ..\src\FWIB\stm32f10x_iwdg.c             0x00000000   Number         0  stm32f10x_iwdg.o ABSOLUTE
    ..\src\FWIB\stm32f10x_pwr.c              0x00000000   Number         0  stm32f10x_pwr.o ABSOLUTE
    ..\src\FWIB\stm32f10x_rcc.c              0x00000000   Number         0  stm32f10x_rcc.o ABSOLUTE
    ..\src\FWIB\stm32f10x_rtc.c              0x00000000   Number         0  stm32f10x_rtc.o ABSOLUTE
    ..\src\FWIB\stm32f10x_sdio.c             0x00000000   Number         0  stm32f10x_sdio.o ABSOLUTE
    ..\src\FWIB\stm32f10x_spi.c              0x00000000   Number         0  stm32f10x_spi.o ABSOLUTE
    ..\src\FWIB\stm32f10x_tim.c              0x00000000   Number         0  stm32f10x_tim.o ABSOLUTE
    ..\src\FWIB\stm32f10x_usart.c            0x00000000   Number         0  stm32f10x_usart.o ABSOLUTE
    ..\src\FWIB\stm32f10x_wwdg.c             0x00000000   Number         0  stm32f10x_wwdg.o ABSOLUTE
    ..\src\LwIP\port\LwIP.c                  0x00000000   Number         0  lwip.o ABSOLUTE
    ..\src\LwIP\port\ethernetif.c            0x00000000   Number         0  ethernetif.o ABSOLUTE
    ..\src\LwIP\port\sys_arch.c              0x00000000   Number         0  sys_arch.o ABSOLUTE
    ..\src\LwIP\src\api\api_lib.c            0x00000000   Number         0  api_lib.o ABSOLUTE
    ..\src\LwIP\src\api\api_msg.c            0x00000000   Number         0  api_msg.o ABSOLUTE
    ..\src\LwIP\src\api\err.c                0x00000000   Number         0  err.o ABSOLUTE
    ..\src\LwIP\src\api\netbuf.c             0x00000000   Number         0  netbuf.o ABSOLUTE
    ..\src\LwIP\src\api\netdb.c              0x00000000   Number         0  netdb.o ABSOLUTE
    ..\src\LwIP\src\api\netifapi.c           0x00000000   Number         0  netifapi.o ABSOLUTE
    ..\src\LwIP\src\api\sockets.c            0x00000000   Number         0  sockets.o ABSOLUTE
    ..\src\LwIP\src\api\tcpip.c              0x00000000   Number         0  tcpip.o ABSOLUTE
    ..\src\LwIP\src\core\def.c               0x00000000   Number         0  def.o ABSOLUTE
    ..\src\LwIP\src\core\dhcp.c              0x00000000   Number         0  dhcp.o ABSOLUTE
    ..\src\LwIP\src\core\dns.c               0x00000000   Number         0  dns.o ABSOLUTE
    ..\src\LwIP\src\core\init.c              0x00000000   Number         0  init.o ABSOLUTE
    ..\src\LwIP\src\core\ipv4\autoip.c       0x00000000   Number         0  autoip.o ABSOLUTE
    ..\src\LwIP\src\core\ipv4\icmp.c         0x00000000   Number         0  icmp.o ABSOLUTE
    ..\src\LwIP\src\core\ipv4\igmp.c         0x00000000   Number         0  igmp.o ABSOLUTE
    ..\src\LwIP\src\core\ipv4\inet.c         0x00000000   Number         0  inet.o ABSOLUTE
    ..\src\LwIP\src\core\ipv4\inet_chksum.c  0x00000000   Number         0  inet_chksum.o ABSOLUTE
    ..\src\LwIP\src\core\ipv4\ip.c           0x00000000   Number         0  ip.o ABSOLUTE
    ..\src\LwIP\src\core\ipv4\ip_addr.c      0x00000000   Number         0  ip_addr.o ABSOLUTE
    ..\src\LwIP\src\core\ipv4\ip_frag.c      0x00000000   Number         0  ip_frag.o ABSOLUTE
    ..\src\LwIP\src\core\mem.c               0x00000000   Number         0  mem.o ABSOLUTE
    ..\src\LwIP\src\core\memp.c              0x00000000   Number         0  memp.o ABSOLUTE
    ..\src\LwIP\src\core\netif.c             0x00000000   Number         0  netif.o ABSOLUTE
    ..\src\LwIP\src\core\pbuf.c              0x00000000   Number         0  pbuf.o ABSOLUTE
    ..\src\LwIP\src\core\raw.c               0x00000000   Number         0  raw.o ABSOLUTE
    ..\src\LwIP\src\core\stats.c             0x00000000   Number         0  stats.o ABSOLUTE
    ..\src\LwIP\src\core\sys.c               0x00000000   Number         0  sys.o ABSOLUTE
    ..\src\LwIP\src\core\tcp.c               0x00000000   Number         0  tcp.o ABSOLUTE
    ..\src\LwIP\src\core\tcp_in.c            0x00000000   Number         0  tcp_in.o ABSOLUTE
    ..\src\LwIP\src\core\tcp_out.c           0x00000000   Number         0  tcp_out.o ABSOLUTE
    ..\src\LwIP\src\core\timers.c            0x00000000   Number         0  timers.o ABSOLUTE
    ..\src\LwIP\src\core\udp.c               0x00000000   Number         0  udp.o ABSOLUTE
    ..\src\LwIP\src\netif\etharp.c           0x00000000   Number         0  etharp.o ABSOLUTE
    ..\src\UCOSII\os_core.c                  0x00000000   Number         0  os_core.o ABSOLUTE
    ..\src\UCOSII\os_cpu_a.asm               0x00000000   Number         0  os_cpu_a.o ABSOLUTE
    ..\src\UCOSII\os_cpu_c.c                 0x00000000   Number         0  os_cpu_c.o ABSOLUTE
    ..\src\UCOSII\os_dbg.c                   0x00000000   Number         0  os_dbg.o ABSOLUTE
    ..\src\UCOSII\os_flag.c                  0x00000000   Number         0  os_flag.o ABSOLUTE
    ..\src\UCOSII\os_mbox.c                  0x00000000   Number         0  os_mbox.o ABSOLUTE
    ..\src\UCOSII\os_mem.c                   0x00000000   Number         0  os_mem.o ABSOLUTE
    ..\src\UCOSII\os_mutex.c                 0x00000000   Number         0  os_mutex.o ABSOLUTE
    ..\src\UCOSII\os_q.c                     0x00000000   Number         0  os_q.o ABSOLUTE
    ..\src\UCOSII\os_sem.c                   0x00000000   Number         0  os_sem.o ABSOLUTE
    ..\src\UCOSII\os_task.c                  0x00000000   Number         0  os_task.o ABSOLUTE
    ..\src\UCOSII\os_time.c                  0x00000000   Number         0  os_time.o ABSOLUTE
    ..\src\UCOSII\os_tmr.c                   0x00000000   Number         0  os_tmr.o ABSOLUTE
    ..\src\USER\main.c                       0x00000000   Number         0  main.o ABSOLUTE
    cdcmple.s                                0x00000000   Number         0  cdcmple.o ABSOLUTE
    cdrcmple.s                               0x00000000   Number         0  cdrcmple.o ABSOLUTE
    cfcmple.s                                0x00000000   Number         0  cfcmple.o ABSOLUTE
    cfrcmple.s                               0x00000000   Number         0  cfrcmple.o ABSOLUTE
    dc.s                                     0x00000000   Number         0  dc.o ABSOLUTE
    handlers.s                               0x00000000   Number         0  handlers.o ABSOLUTE
    init.s                                   0x00000000   Number         0  init.o ABSOLUTE
    RESET                                    0x08005000   Section      336  startup_stm32f10x_cl.o(RESET)
    .ARM.Collect$$$$00000000                 0x08005150   Section        0  entry.o(.ARM.Collect$$$$00000000)
    .ARM.Collect$$$$00000001                 0x08005150   Section        4  entry2.o(.ARM.Collect$$$$00000001)
    .ARM.Collect$$$$00000004                 0x08005154   Section        4  entry5.o(.ARM.Collect$$$$00000004)
    .ARM.Collect$$$$00000008                 0x08005158   Section        0  entry7b.o(.ARM.Collect$$$$00000008)
    .ARM.Collect$$$$0000000A                 0x08005158   Section        0  entry8b.o(.ARM.Collect$$$$0000000A)
    .ARM.Collect$$$$0000000B                 0x08005158   Section        8  entry9a.o(.ARM.Collect$$$$0000000B)
    .ARM.Collect$$$$0000000D                 0x08005160   Section        0  entry10a.o(.ARM.Collect$$$$0000000D)
    .ARM.Collect$$$$0000000F                 0x08005160   Section        0  entry11a.o(.ARM.Collect$$$$0000000F)
    .ARM.Collect$$$$00002712                 0x08005160   Section        4  entry2.o(.ARM.Collect$$$$00002712)
    __lit__00000000                          0x08005160   Data           4  entry2.o(.ARM.Collect$$$$00002712)
    .text                                    0x08005164   Section        0  main.o(.text)
    AppTaskDebug                             0x08005165   Thumb Code    10  main.o(.text)
    AppTaskControl                           0x0800516f   Thumb Code    10  main.o(.text)
    App_TaskDataCollect                      0x08005179   Thumb Code    10  main.o(.text)
    App_TaskToggleLED                        0x08005183   Thumb Code    24  main.o(.text)
    App_TaskLWIP                             0x0800519b   Thumb Code    10  main.o(.text)
    App_TaskCreate                           0x080051a5   Thumb Code   186  main.o(.text)
    App_EventCreate                          0x0800525f   Thumb Code   114  main.o(.text)
    App_TaskSTART                            0x080052d1   Thumb Code    26  main.o(.text)
    HAL_INIT_ALL                             0x080052eb   Thumb Code   118  main.o(.text)
    .text                                    0x08005440   Section        0  hal_process_control.o(.text)
    .text                                    0x08008250   Section        0  hal_process_serves.o(.text)
    NetCmdProcess                            0x08008251   Thumb Code    58  hal_process_serves.o(.text)
    NetProtocolProcess                       0x080084cf   Thumb Code   612  hal_process_serves.o(.text)
    .text                                    0x08008a94   Section        0  hal_process_collect.o(.text)
    .text                                    0x0800925c   Section        0  hal_process_debug.o(.text)
    .text                                    0x0800991c   Section        0  patrol_control.o(.text)
    .text                                    0x0800aa44   Section        0  bsp.o(.text)
    .text                                    0x0800b714   Section        0  bsp_can.o(.text)
    .text                                    0x0800b8f8   Section        0  bsp_eth.o(.text)
    .text                                    0x0800baac   Section        0  bsp_usart.o(.text)
    .text                                    0x0800bf2c   Section        0  bsp_tim.o(.text)
    .text                                    0x0800c1b4   Section        0  bsp_spi.o(.text)
    SPIFlash_ReadStatus                      0x0800c1e9   Thumb Code    46  bsp_spi.o(.text)
    SPIFlash_BusyWait                        0x0800c403   Thumb Code    30  bsp_spi.o(.text)
    .text                                    0x0800c8b4   Section        0  stm32f10x_it.o(.text)
    .text                                    0x0800c9ac   Section        0  system_stm32f10x.o(.text)
    SetSysClockTo72                          0x0800c9ad   Thumb Code   260  system_stm32f10x.o(.text)
    SetSysClock                              0x0800cab1   Thumb Code     8  system_stm32f10x.o(.text)
    .text                                    0x0800cc2c   Section       36  startup_stm32f10x_cl.o(.text)
    .text                                    0x0800cc50   Section        0  misc.o(.text)
    .text                                    0x0800cd2c   Section        0  stm32_eth.o(.text)
    ETH_Delay                                0x0800cd43   Thumb Code    28  stm32_eth.o(.text)
    .text                                    0x0800de70   Section        0  stm32f10x_can.o(.text)
    CheckITStatus                            0x0800e673   Thumb Code    16  stm32f10x_can.o(.text)
    .text                                    0x0800e85c   Section        0  stm32f10x_exti.o(.text)
    .text                                    0x0800e978   Section        0  stm32f10x_flash.o(.text)
    .text                                    0x0800ef34   Section        0  stm32f10x_gpio.o(.text)
    .text                                    0x0800f28c   Section        0  stm32f10x_iwdg.o(.text)
    .text                                    0x0800f2cc   Section        0  stm32f10x_pwr.o(.text)
    .text                                    0x0800f398   Section        0  stm32f10x_rcc.o(.text)
    .text                                    0x0800f89c   Section        0  stm32f10x_spi.o(.text)
    .text                                    0x0800fbf0   Section        0  stm32f10x_tim.o(.text)
    TI4_Config                               0x08010097   Thumb Code   130  stm32f10x_tim.o(.text)
    TI3_Config                               0x0801012b   Thumb Code   122  stm32f10x_tim.o(.text)
    TI2_Config                               0x080101bf   Thumb Code   130  stm32f10x_tim.o(.text)
    TI1_Config                               0x08010253   Thumb Code   108  stm32f10x_tim.o(.text)
    .text                                    0x08010a0c   Section        0  stm32f10x_usart.o(.text)
    .text                                    0x08010e14   Section        0  os_core.o(.text)
    OS_SchedNew                              0x08010f1b   Thumb Code    26  os_core.o(.text)
    OS_InitTaskStat                          0x08011385   Thumb Code    52  os_core.o(.text)
    OS_InitTaskIdle                          0x080113db   Thumb Code    52  os_core.o(.text)
    OS_InitEventList                         0x08011421   Thumb Code    84  os_core.o(.text)
    OS_InitTCBList                           0x08011475   Thumb Code   106  os_core.o(.text)
    OS_InitRdyList                           0x080114df   Thumb Code    44  os_core.o(.text)
    OS_InitMisc                              0x0801150b   Thumb Code    44  os_core.o(.text)
    .text                                    0x08011b18   Section        0  os_cpu_c.o(.text)
    .text                                    0x08011c2c   Section        0  os_flag.o(.text)
    OS_FlagTaskRdy                           0x08011da3   Thumb Code    96  os_flag.o(.text)
    OS_FlagBlock                             0x08011f6b   Thumb Code   152  os_flag.o(.text)
    .text                                    0x08012444   Section        0  os_mbox.o(.text)
    .text                                    0x08012828   Section        0  os_mem.o(.text)
    .text                                    0x08012a0c   Section        0  os_q.o(.text)
    .text                                    0x0801300c   Section        0  os_sem.o(.text)
    .text                                    0x080133b0   Section        0  os_task.o(.text)
    .text                                    0x08013bd8   Section        0  os_time.o(.text)
    .text                                    0x08013d90   Section      172  os_cpu_a.o(.text)
    .text                                    0x08013e3c   Section        0  ethernetif.o(.text)
    low_level_init                           0x08013e65   Thumb Code   142  ethernetif.o(.text)
    low_level_output                         0x08013f59   Thumb Code    52  ethernetif.o(.text)
    low_level_input                          0x08014021   Thumb Code   110  ethernetif.o(.text)
    .text                                    0x080141b0   Section        0  sys_arch.o(.text)
    .text                                    0x0801468c   Section        0  api_lib.o(.text)
    netconn_recv_data                        0x08014c9f   Thumb Code   368  api_lib.o(.text)
    netconn_close_shutdown                   0x080151c3   Thumb Code    96  api_lib.o(.text)
    .text                                    0x08015274   Section        0  api_msg.o(.text)
    recv_raw                                 0x08015275   Thumb Code   150  api_msg.o(.text)
    recv_udp                                 0x0801530b   Thumb Code   200  api_msg.o(.text)
    recv_tcp                                 0x080153d3   Thumb Code   206  api_msg.o(.text)
    err_tcp                                  0x080154a1   Thumb Code   256  api_msg.o(.text)
    do_writemore                             0x080155a1   Thumb Code   938  api_msg.o(.text)
    sent_tcp                                 0x0801594b   Thumb Code   130  api_msg.o(.text)
    do_close_internal                        0x080159cd   Thumb Code   452  api_msg.o(.text)
    poll_tcp                                 0x08015b91   Thumb Code   132  api_msg.o(.text)
    setup_tcp                                0x08015c15   Thumb Code    50  api_msg.o(.text)
    accept_function                          0x08015e3d   Thumb Code   168  api_msg.o(.text)
    pcb_new                                  0x08015ee5   Thumb Code   178  api_msg.o(.text)
    netconn_drain                            0x08015fb7   Thumb Code   200  api_msg.o(.text)
    do_connected                             0x08016371   Thumb Code   210  api_msg.o(.text)
    .text                                    0x08016a20   Section        0  netbuf.o(.text)
    .text                                    0x08016dcc   Section        0  sockets.o(.text)
    get_socket                               0x08016dcf   Thumb Code    36  sockets.o(.text)
    tryget_socket                            0x08016df3   Thumb Code    42  sockets.o(.text)
    alloc_socket                             0x08016e1d   Thumb Code   166  sockets.o(.text)
    free_socket                              0x08016ec3   Thumb Code    56  sockets.o(.text)
    event_callback                           0x08016efb   Thumb Code   374  sockets.o(.text)
    lwip_selscan                             0x08017aa1   Thumb Code   488  sockets.o(.text)
    lwip_getaddrname                         0x080180ff   Thumb Code   118  sockets.o(.text)
    lwip_getsockopt_internal                 0x080181a1   Thumb Code   458  sockets.o(.text)
    lwip_setsockopt_internal                 0x080184b7   Thumb Code   470  sockets.o(.text)
    .text                                    0x080188a8   Section        0  tcpip.o(.text)
    tcpip_thread                             0x080188a9   Thumb Code   202  tcpip.o(.text)
    pbuf_free_int                            0x08018b55   Thumb Code    14  tcpip.o(.text)
    .text                                    0x08018c38   Section        0  icmp.o(.text)
    icmp_send_response                       0x08018e13   Thumb Code   136  icmp.o(.text)
    .text                                    0x08019030   Section        0  inet_chksum.o(.text)
    lwip_standard_chksum                     0x08019031   Thumb Code    94  inet_chksum.o(.text)
    .text                                    0x080192cc   Section        0  ip.o(.text)
    .text                                    0x08019674   Section        0  ip_addr.o(.text)
    .text                                    0x08019994   Section        0  ip_frag.o(.text)
    ip_reass_dequeue_datagram                0x08019995   Thumb Code    60  ip_frag.o(.text)
    ip_reass_free_complete_datagram          0x080199d1   Thumb Code   274  ip_frag.o(.text)
    ip_reass_remove_oldest_datagram          0x08019b13   Thumb Code   118  ip_frag.o(.text)
    ip_reass_enqueue_new_datagram            0x08019b89   Thumb Code    80  ip_frag.o(.text)
    ip_reass_chain_frag_into_datagram_and_validate 0x08019bd9   Thumb Code   828  ip_frag.o(.text)
    ip_frag_alloc_pbuf_custom_ref            0x0801a097   Thumb Code    10  ip_frag.o(.text)
    ip_frag_free_pbuf_custom_ref             0x0801a0a1   Thumb Code    42  ip_frag.o(.text)
    ipfrag_free_pbuf_custom                  0x0801a0cb   Thumb Code    82  ip_frag.o(.text)
    .text                                    0x0801a386   Section        0  init.o(.text)
    .text                                    0x0801a3ac   Section        0  mem.o(.text)
    plug_holes                               0x0801a3ad   Thumb Code   218  mem.o(.text)
    .text                                    0x0801aad0   Section        0  memp.o(.text)
    .text                                    0x0801ac94   Section        0  netif.o(.text)
    .text                                    0x0801af80   Section        0  pbuf.o(.text)
    pbuf_free_ooseq                          0x0801af81   Thumb Code    52  pbuf.o(.text)
    pbuf_free_ooseq_callback                 0x0801afb5   Thumb Code    10  pbuf.o(.text)
    pbuf_pool_is_empty                       0x0801afbf   Thumb Code    62  pbuf.o(.text)
    .text                                    0x0801c060   Section        0  raw.o(.text)
    .text                                    0x0801c294   Section        0  tcp.o(.text)
    tcp_close_shutdown                       0x0801c957   Thumb Code   460  tcp.o(.text)
    tcp_new_port                             0x0801cfb5   Thumb Code    96  tcp.o(.text)
    tcp_accept_null                          0x0801d185   Thumb Code     8  tcp.o(.text)
    tcp_kill_prio                            0x0801d435   Thumb Code    76  tcp.o(.text)
    tcp_kill_timewait                        0x0801d481   Thumb Code    50  tcp.o(.text)
    .text                                    0x0801d764   Section        0  tcp_in.o(.text)
    tcp_oos_insert_segment                   0x0801d765   Thumb Code   138  tcp_in.o(.text)
    tcp_receive                              0x0801d7ef   Thumb Code  3466  tcp_in.o(.text)
    tcp_parseopt                             0x0801e579   Thumb Code   178  tcp_in.o(.text)
    tcp_process                              0x0801e62b   Thumb Code  1532  tcp_in.o(.text)
    tcp_listen_input                         0x0801ec27   Thumb Code   266  tcp_in.o(.text)
    tcp_timewait_input                       0x0801ed31   Thumb Code   140  tcp_in.o(.text)
    .text                                    0x0801f450   Section        0  tcp_out.o(.text)
    tcp_output_alloc_header                  0x0801f451   Thumb Code   148  tcp_out.o(.text)
    tcp_create_segment                       0x0801f4e5   Thumb Code   172  tcp_out.o(.text)
    tcp_pbuf_prealloc                        0x0801f767   Thumb Code   142  tcp_out.o(.text)
    tcp_write_checks                         0x0801f7f5   Thumb Code   502  tcp_out.o(.text)
    tcp_output_segment                       0x08020053   Thumb Code   200  tcp_out.o(.text)
    .text                                    0x08020638   Section        0  udp.o(.text)
    udp_new_port                             0x0802063b   Thumb Code    80  udp.o(.text)
    .text                                    0x08020b88   Section        0  def.o(.text)
    .text                                    0x08020bc8   Section        0  timers.o(.text)
    tcpip_tcp_timer                          0x08020c77   Thumb Code    40  timers.o(.text)
    ip_reass_timer                           0x08020cc5   Thumb Code    22  timers.o(.text)
    arp_timer                                0x08020cdb   Thumb Code    22  timers.o(.text)
    .text                                    0x08020e94   Section        0  etharp.o(.text)
    etharp_free_entry                        0x08020e95   Thumb Code    58  etharp.o(.text)
    etharp_find_entry                        0x08020f57   Thumb Code   484  etharp.o(.text)
    etharp_send_ip                           0x0802113b   Thumb Code    82  etharp.o(.text)
    etharp_update_arp_entry                  0x0802118d   Thumb Code   204  etharp.o(.text)
    etharp_arp_input                         0x0802140f   Thumb Code   312  etharp.o(.text)
    etharp_raw                               0x08021547   Thumb Code   260  etharp.o(.text)
    etharp_output_to_arp_index               0x0802166f   Thumb Code   142  etharp.o(.text)
    .text                                    0x08021c44   Section        0  lwip.o(.text)
    TcpipInitDone                            0x08021c45   Thumb Code    14  lwip.o(.text)
    list_if                                  0x08021c53   Thumb Code    74  lwip.o(.text)
    .text                                    0x08021e54   Section        0  localtime.o(.text)
    .text                                    0x08021ed8   Section        0  memcpya.o(.text)
    .text                                    0x08021efc   Section        0  memseta.o(.text)
    .text                                    0x08021f20   Section        0  strstr.o(.text)
    .text                                    0x08021f44   Section        0  strlen.o(.text)
    .text                                    0x08021f52   Section        0  memcmp.o(.text)
    .text                                    0x08021f6c   Section        0  strcpy.o(.text)
    .text                                    0x08021f7e   Section        0  strncmp.o(.text)
    .text                                    0x08021f9c   Section        0  __0sscanf.o(.text)
    .text                                    0x08021fd4   Section        0  _scanf_int.o(.text)
    .text                                    0x08022124   Section        0  atoi.o(.text)
    .text                                    0x0802213e   Section        0  fadd.o(.text)
    .text                                    0x080221ee   Section        0  fmul.o(.text)
    .text                                    0x0802225a   Section        0  fdiv.o(.text)
    .text                                    0x080222da   Section        0  dadd.o(.text)
    .text                                    0x08022428   Section        0  dmul.o(.text)
    .text                                    0x0802250c   Section        0  ddiv.o(.text)
    .text                                    0x080225ea   Section        0  fflti.o(.text)
    .text                                    0x080225fc   Section        0  dflti.o(.text)
    .text                                    0x0802261e   Section        0  ffixi.o(.text)
    .text                                    0x08022650   Section        0  dfixi.o(.text)
    .text                                    0x0802268e   Section        0  f2d.o(.text)
    .text                                    0x080226b4   Section       40  cdcmple.o(.text)
    .text                                    0x080226dc   Section        0  d2f.o(.text)
    .text                                    0x08022714   Section       20  cfcmple.o(.text)
    .text                                    0x08022728   Section       20  cfrcmple.o(.text)
    .text                                    0x0802273c   Section        0  uidiv.o(.text)
    .text                                    0x08022768   Section        0  uldiv.o(.text)
    .text                                    0x080227ca   Section        0  llshl.o(.text)
    .text                                    0x080227e8   Section        0  llushr.o(.text)
    .text                                    0x08022808   Section        0  llsshr.o(.text)
    .text                                    0x0802282c   Section        0  _chval.o(.text)
    .text                                    0x08022848   Section        0  scanf_char.o(.text)
    _scanf_char_input                        0x08022849   Thumb Code    12  scanf_char.o(.text)
    .text                                    0x08022870   Section        0  _sgetc.o(.text)
    .text                                    0x080228b0   Section        0  strtol.o(.text)
    .text                                    0x08022920   Section        0  iusefp.o(.text)
    .text                                    0x08022920   Section        0  fepilogue.o(.text)
    .text                                    0x0802298c   Section        0  depilogue.o(.text)
    .text                                    0x08022a4a   Section        0  dfixul.o(.text)
    .text                                    0x08022a7c   Section       40  cdrcmple.o(.text)
    .text                                    0x08022aa4   Section       36  init.o(.text)
    .text                                    0x08022ac8   Section        0  ctype_o.o(.text)
    .text                                    0x08022ad0   Section        0  isspace_o.o(.text)
    .text                                    0x08022ae4   Section        0  _scanf.o(.text)
    .text                                    0x08022e10   Section        0  _strtoul.o(.text)
    .text                                    0x08022eae   Section        0  __dczerorl2.o(.text)
    i.__0printf                              0x08022f0c   Section        0  printfa.o(i.__0printf)
    i.__0sprintf                             0x08022f2c   Section        0  printfa.o(i.__0sprintf)
    i.__0vprintf                             0x08022f54   Section        0  printfa.o(i.__0vprintf)
    i.__0vsprintf                            0x08022f64   Section        0  printfa.o(i.__0vsprintf)
    i.__aeabi_errno_addr                     0x08022f88   Section        0  errno.o(i.__aeabi_errno_addr)
    i.__scatterload_copy                     0x08022f90   Section       14  handlers.o(i.__scatterload_copy)
    i.__scatterload_null                     0x08022f9e   Section        2  handlers.o(i.__scatterload_null)
    i.__scatterload_zeroinit                 0x08022fa0   Section       14  handlers.o(i.__scatterload_zeroinit)
    i._fp_digits                             0x08022fb0   Section        0  printfa.o(i._fp_digits)
    _fp_digits                               0x08022fb1   Thumb Code   326  printfa.o(i._fp_digits)
    i._printf_core                           0x0802310c   Section        0  printfa.o(i._printf_core)
    _printf_core                             0x0802310d   Thumb Code  1762  printfa.o(i._printf_core)
    i._printf_post_padding                   0x080237fc   Section        0  printfa.o(i._printf_post_padding)
    _printf_post_padding                     0x080237fd   Thumb Code    38  printfa.o(i._printf_post_padding)
    i._printf_pre_padding                    0x08023822   Section        0  printfa.o(i._printf_pre_padding)
    _printf_pre_padding                      0x08023823   Thumb Code    48  printfa.o(i._printf_pre_padding)
    i._sputc                                 0x08023852   Section        0  printfa.o(i._sputc)
    _sputc                                   0x08023853   Thumb Code    10  printfa.o(i._sputc)
    i.floor                                  0x0802385c   Section        0  floor.o(i.floor)
    .constdata                               0x08023938   Section      240  hal_process_control.o(.constdata)
    CanSendData_position                     0x08023938   Data           8  hal_process_control.o(.constdata)
    CanSendData_velocity                     0x08023940   Data           8  hal_process_control.o(.constdata)
    CanSendData_homing                       0x08023948   Data           8  hal_process_control.o(.constdata)
    CanSendData1                             0x08023950   Data           8  hal_process_control.o(.constdata)
    CanSendData2                             0x08023958   Data           8  hal_process_control.o(.constdata)
    CanSendData3                             0x08023960   Data           8  hal_process_control.o(.constdata)
    CanSendData1                             0x08023968   Data           8  hal_process_control.o(.constdata)
    CanSendData2                             0x08023970   Data           8  hal_process_control.o(.constdata)
    CanSendData3                             0x08023978   Data           8  hal_process_control.o(.constdata)
    CanSendData4                             0x08023980   Data           8  hal_process_control.o(.constdata)
    CanSendData                              0x08023988   Data           8  hal_process_control.o(.constdata)
    CanSendData                              0x08023990   Data           8  hal_process_control.o(.constdata)
    CanSendData                              0x08023998   Data           8  hal_process_control.o(.constdata)
    .constdata                               0x08023a28   Section       32  hal_process_collect.o(.constdata)
    .constdata                               0x08023a48   Section       73  hal_process_debug.o(.constdata)
    .constdata                               0x08023a94   Section       65  bsp_can.o(.constdata)
    .constdata                               0x08023ad5   Section      256  os_core.o(.constdata)
    .constdata                               0x08023bd8   Section        4  sys_arch.o(.constdata)
    .constdata                               0x08023bdc   Section       64  sockets.o(.constdata)
    err_to_errno_table                       0x08023bdc   Data          64  sockets.o(.constdata)
    .constdata                               0x08023c1c   Section        8  ip_addr.o(.constdata)
    .constdata                               0x08023c24   Section       56  memp.o(.constdata)
    memp_sizes                               0x08023c24   Data          28  memp.o(.constdata)
    memp_num                                 0x08023c40   Data          28  memp.o(.constdata)
    .constdata                               0x08023c5c   Section       80  tcp.o(.constdata)
    .constdata                               0x08023cac   Section       85  tcp_out.o(.constdata)
    .constdata                               0x08023d04   Section       80  etharp.o(.constdata)
    .constdata                               0x08023d54   Section       12  localtime.o(.constdata)
    monlen                                   0x08023d54   Data          12  localtime.o(.constdata)
    .constdata                               0x08023d60   Section      129  ctype_o.o(.constdata)
    .constdata                               0x08023de4   Section        4  ctype_o.o(.constdata)
    table                                    0x08023de4   Data           4  ctype_o.o(.constdata)
    .conststring                             0x08023de8   Section      104  tcp.o(.conststring)
    .data                                    0x20000000   Section       48  main.o(.data)
    updatatime                               0x20000000   Data           4  main.o(.data)
    .data                                    0x20000030   Section      244  hal_process_control.o(.data)
    modemsg                                  0x20000038   Data          12  hal_process_control.o(.data)
    msgarr                                   0x20000044   Data          12  hal_process_control.o(.data)
    msgarr                                   0x20000050   Data          16  hal_process_control.o(.data)
    CanSendData_position                     0x20000060   Data           8  hal_process_control.o(.data)
    CanSendData_speed                        0x20000068   Data           8  hal_process_control.o(.data)
    CanSendData_velocity3                    0x20000070   Data           8  hal_process_control.o(.data)
    CanSendData_velocity4                    0x20000078   Data           8  hal_process_control.o(.data)
    msgarr                                   0x20000080   Data          16  hal_process_control.o(.data)
    CanSendData_velocity                     0x20000090   Data           8  hal_process_control.o(.data)
    CanSendData_velocity                     0x20000098   Data           8  hal_process_control.o(.data)
    CanSendData_velocity1                    0x200000a0   Data           8  hal_process_control.o(.data)
    CanSendData_velocity2                    0x200000a8   Data           8  hal_process_control.o(.data)
    CanSendData_velocity3                    0x200000b0   Data           8  hal_process_control.o(.data)
    CanSendData_velocity4                    0x200000b8   Data           8  hal_process_control.o(.data)
    CanSendData_velocity5                    0x200000c0   Data           8  hal_process_control.o(.data)
    CanSendData_velocity6                    0x200000c8   Data           8  hal_process_control.o(.data)
    msgarr                                   0x200000d0   Data          24  hal_process_control.o(.data)
    CanSendData1                             0x200000e8   Data           8  hal_process_control.o(.data)
    CanSendData2                             0x200000f0   Data           8  hal_process_control.o(.data)
    CanSendData3                             0x200000f8   Data           8  hal_process_control.o(.data)
    CanSendData4                             0x20000100   Data           8  hal_process_control.o(.data)
    CanSendData5                             0x20000108   Data           8  hal_process_control.o(.data)
    msgarr                                   0x20000110   Data          20  hal_process_control.o(.data)
    .data                                    0x20000124   Section       28  hal_process_serves.o(.data)
    ipaddr                                   0x20000128   Data           4  hal_process_serves.o(.data)
    port                                     0x2000012c   Data           2  hal_process_serves.o(.data)
    size_bin                                 0x20000130   Data           4  hal_process_serves.o(.data)
    cout                                     0x20000134   Data           4  hal_process_serves.o(.data)
    conn                                     0x20000138   Data           4  hal_process_serves.o(.data)
    newconn                                  0x2000013c   Data           4  hal_process_serves.o(.data)
    .data                                    0x20000140   Section       36  hal_process_collect.o(.data)
    ultrasonic_time                          0x20000148   Data           4  hal_process_collect.o(.data)
    voltage_time                             0x2000014c   Data           4  hal_process_collect.o(.data)
    laser4_time                              0x20000150   Data           4  hal_process_collect.o(.data)
    movelimit_time                           0x20000154   Data           4  hal_process_collect.o(.data)
    bedlimit_time                            0x20000158   Data           4  hal_process_collect.o(.data)
    bedline_time                             0x2000015c   Data           4  hal_process_collect.o(.data)
    updatatime                               0x20000160   Data           4  hal_process_collect.o(.data)
    .data                                    0x20000164   Section       52  patrol_control.o(.data)
    test_data_flag                           0x20000178   Data           1  patrol_control.o(.data)
    xx                                       0x20000179   Data           4  patrol_control.o(.data)
    .data                                    0x20000198   Section        1  bsp.o(.data)
    DBGMutexFlag                             0x20000198   Data           1  bsp.o(.data)
    .data                                    0x2000019c   Section        4  bsp_usart.o(.data)
    .data                                    0x200001a0   Section        8  bsp_spi.o(.data)
    outstate                                 0x200001a4   Data           4  bsp_spi.o(.data)
    .data                                    0x200001a8   Section       20  system_stm32f10x.o(.data)
    .data                                    0x200001bc   Section       16  stm32_eth.o(.data)
    .data                                    0x200001cc   Section       20  stm32f10x_rcc.o(.data)
    APBAHBPrescTable                         0x200001cc   Data          16  stm32f10x_rcc.o(.data)
    ADCPrescTable                            0x200001dc   Data           4  stm32f10x_rcc.o(.data)
    .data                                    0x200001e0   Section       76  os_core.o(.data)
    .data                                    0x2000022c   Section       26  ethernetif.o(.data)
    tx_buf_free                              0x2000023c   Data           4  ethernetif.o(.data)
    .data                                    0x20000248   Section        8  sys_arch.o(.data)
    pQueueMem                                0x20000248   Data           4  sys_arch.o(.data)
    .data                                    0x20000250   Section        8  sockets.o(.data)
    select_cb_list                           0x20000250   Data           4  sockets.o(.data)
    select_cb_ctr                            0x20000254   Data           4  sockets.o(.data)
    .data                                    0x20000258   Section       12  tcpip.o(.data)
    tcpip_init_done                          0x20000258   Data           4  tcpip.o(.data)
    tcpip_init_done_arg                      0x2000025c   Data           4  tcpip.o(.data)
    mbox                                     0x20000260   Data           4  tcpip.o(.data)
    .data                                    0x20000264   Section       18  ip.o(.data)
    ip_id                                    0x20000274   Data           2  ip.o(.data)
    .data                                    0x20000278   Section        6  ip_frag.o(.data)
    reassdatagrams                           0x20000278   Data           4  ip_frag.o(.data)
    ip_reass_pbufcount                       0x2000027c   Data           2  ip_frag.o(.data)
    .data                                    0x20000280   Section       16  mem.o(.data)
    ram                                      0x20000280   Data           4  mem.o(.data)
    ram_end                                  0x20000284   Data           4  mem.o(.data)
    lfree                                    0x20000288   Data           4  mem.o(.data)
    mem_mutex                                0x2000028c   Data           4  mem.o(.data)
    .data                                    0x20000290   Section        9  netif.o(.data)
    netif_num                                0x20000298   Data           1  netif.o(.data)
    .data                                    0x20000299   Section        1  pbuf.o(.data)
    .data                                    0x2000029c   Section        4  raw.o(.data)
    raw_pcbs                                 0x2000029c   Data           4  raw.o(.data)
    .data                                    0x200002a0   Section       35  tcp.o(.data)
    tcp_port                                 0x200002a0   Data           2  tcp.o(.data)
    iss                                      0x200002a4   Data           4  tcp.o(.data)
    tcp_timer                                0x200002c1   Data           1  tcp.o(.data)
    tcp_timer_ctr                            0x200002c2   Data           1  tcp.o(.data)
    .data                                    0x200002c4   Section       32  tcp_in.o(.data)
    tcphdr                                   0x200002c4   Data           4  tcp_in.o(.data)
    iphdr                                    0x200002c8   Data           4  tcp_in.o(.data)
    seqno                                    0x200002cc   Data           4  tcp_in.o(.data)
    ackno                                    0x200002d0   Data           4  tcp_in.o(.data)
    flags                                    0x200002d4   Data           1  tcp_in.o(.data)
    tcplen                                   0x200002d6   Data           2  tcp_in.o(.data)
    recv_flags                               0x200002d8   Data           1  tcp_in.o(.data)
    recv_data                                0x200002dc   Data           4  tcp_in.o(.data)
    .data                                    0x200002e4   Section        8  udp.o(.data)
    udp_port                                 0x200002e4   Data           2  udp.o(.data)
    .data                                    0x200002ec   Section        8  timers.o(.data)
    next_timeout                             0x200002ec   Data           4  timers.o(.data)
    tcpip_tcp_timer_active                   0x200002f0   Data           4  timers.o(.data)
    .data                                    0x200002f4   Section        1  etharp.o(.data)
    etharp_cached_entry                      0x200002f4   Data           1  etharp.o(.data)
    .data                                    0x200002f8   Section       16  lwip.o(.data)
    IPaddress                                0x200002f8   Data           4  lwip.o(.data)
    .data                                    0x20000308   Section        4  stdout.o(.data)
    .data                                    0x2000030c   Section        4  errno.o(.data)
    _errno                                   0x2000030c   Data           4  errno.o(.data)
    .bss                                     0x20000310   Section     4352  main.o(.bss)
    App_TaskSTARTStk                         0x20000310   Data         512  main.o(.bss)
    App_TaskLWIPStk                          0x20000510   Data        1024  main.o(.bss)
    App_TaskToggleLEDStk                     0x20000910   Data         256  main.o(.bss)
    App_TaskDataCollectStk                   0x20000a10   Data         512  main.o(.bss)
    App_TaskControlStk                       0x20000c10   Data        1024  main.o(.bss)
    App_TaskDebugStk                         0x20001010   Data        1024  main.o(.bss)
    .bss                                     0x20001410   Section       50  hal_process_control.o(.bss)
    btmp                                     0x20001410   Data          50  hal_process_control.o(.bss)
    .bss                                     0x20001444   Section     3136  hal_process_serves.o(.bss)
    cstr                                     0x20001468   Data         600  hal_process_serves.o(.bss)
    revtmp                                   0x200016c0   Data         600  hal_process_serves.o(.bss)
    txdtmp                                   0x20001918   Data         600  hal_process_serves.o(.bss)
    tmp                                      0x20001b70   Data         100  hal_process_serves.o(.bss)
    .bss                                     0x20002084   Section       37  hal_process_collect.o(.bss)
    .bss                                     0x200020ac   Section      192  patrol_control.o(.bss)
    .bss                                     0x2000216c   Section       28  bsp.o(.bss)
    .bss                                     0x20002188   Section       20  bsp_can.o(.bss)
    .bss                                     0x2000219c   Section      505  bsp_usart.o(.bss)
    .bss                                     0x20002398   Section     4912  os_core.o(.bss)
    .bss                                     0x200036c8   Section     9216  ethernetif.o(.bss)
    .bss                                     0x20005ac8   Section     4456  sys_arch.o(.bss)
    pcQueueMemoryPool                        0x200068d8   Data         843  sys_arch.o(.bss)
    .bss                                     0x20006c30   Section       96  sockets.o(.bss)
    sockets                                  0x20006c30   Data          96  sockets.o(.bss)
    .bss                                     0x20006c90   Section       16  ip_addr.o(.bss)
    str                                      0x20006c90   Data          16  ip_addr.o(.bss)
    .bss                                     0x20006ca0   Section    16404  mem.o(.bss)
    .bss                                     0x2000acb4   Section    18707  memp.o(.bss)
    memp_tab                                 0x2000acb4   Data          56  memp.o(.bss)
    memp_memory                              0x2000acec   Data       18651  memp.o(.bss)
    .bss                                     0x2000f5c8   Section       16  tcp_in.o(.bss)
    inseg                                    0x2000f5c8   Data          16  tcp_in.o(.bss)
    .bss                                     0x2000f5d8   Section      200  etharp.o(.bss)
    arp_table                                0x2000f5d8   Data         200  etharp.o(.bss)
    .bss                                     0x2000f6a0   Section       48  lwip.o(.bss)
    netif                                    0x2000f6a0   Data          48  lwip.o(.bss)
    .bss                                     0x2000f6d0   Section       44  localtime.o(.bss)
    _tms                                     0x2000f6d0   Data          44  localtime.o(.bss)
    STACK                                    0x2000f700   Section     1024  startup_stm32f10x_cl.o(STACK)

    Global Symbols

    Symbol Name                              Value     Ov Type        Size  Object(Section)

    BuildAttributes$$THM_ISAv4$P$D$K$B$S$PE$A:L22UL41UL21$X:L11$S22US41US21$IEEE1$IW$USESV6$~STKCKD$USESV7$~SHL$OTIME$ROPI$IEEEJ$EBA8$MICROLIB$REQ8$PRES8$EABIv2 0x00000000   Number         0  anon$$obj.o ABSOLUTE
    __ARM_use_no_argv                        0x00000000   Number         0  main.o ABSOLUTE
    _printf_a                                0x00000000   Number         0  stubs.o ABSOLUTE
    _printf_c                                0x00000000   Number         0  stubs.o ABSOLUTE
    _printf_charcount                        0x00000000   Number         0  stubs.o ABSOLUTE
    _printf_d                                0x00000000   Number         0  stubs.o ABSOLUTE
    _printf_e                                0x00000000   Number         0  stubs.o ABSOLUTE
    _printf_f                                0x00000000   Number         0  stubs.o ABSOLUTE
    _printf_flags                            0x00000000   Number         0  stubs.o ABSOLUTE
    _printf_fp_dec                           0x00000000   Number         0  stubs.o ABSOLUTE
    _printf_fp_hex                           0x00000000   Number         0  stubs.o ABSOLUTE
    _printf_g                                0x00000000   Number         0  stubs.o ABSOLUTE
    _printf_i                                0x00000000   Number         0  stubs.o ABSOLUTE
    _printf_int_dec                          0x00000000   Number         0  stubs.o ABSOLUTE
    _printf_l                                0x00000000   Number         0  stubs.o ABSOLUTE
    _printf_lc                               0x00000000   Number         0  stubs.o ABSOLUTE
    _printf_ll                               0x00000000   Number         0  stubs.o ABSOLUTE
    _printf_lld                              0x00000000   Number         0  stubs.o ABSOLUTE
    _printf_lli                              0x00000000   Number         0  stubs.o ABSOLUTE
    _printf_llo                              0x00000000   Number         0  stubs.o ABSOLUTE
    _printf_llu                              0x00000000   Number         0  stubs.o ABSOLUTE
    _printf_llx                              0x00000000   Number         0  stubs.o ABSOLUTE
    _printf_longlong_dec                     0x00000000   Number         0  stubs.o ABSOLUTE
    _printf_longlong_hex                     0x00000000   Number         0  stubs.o ABSOLUTE
    _printf_longlong_oct                     0x00000000   Number         0  stubs.o ABSOLUTE
    _printf_ls                               0x00000000   Number         0  stubs.o ABSOLUTE
    _printf_mbtowc                           0x00000000   Number         0  stubs.o ABSOLUTE
    _printf_n                                0x00000000   Number         0  stubs.o ABSOLUTE
    _printf_o                                0x00000000   Number         0  stubs.o ABSOLUTE
    _printf_p                                0x00000000   Number         0  stubs.o ABSOLUTE
    _printf_percent                          0x00000000   Number         0  stubs.o ABSOLUTE
    _printf_pre_padding                      0x00000000   Number         0  stubs.o ABSOLUTE
    _printf_return_value                     0x00000000   Number         0  stubs.o ABSOLUTE
    _printf_s                                0x00000000   Number         0  stubs.o ABSOLUTE
    _printf_sizespec                         0x00000000   Number         0  stubs.o ABSOLUTE
    _printf_str                              0x00000000   Number         0  stubs.o ABSOLUTE
    _printf_truncate_signed                  0x00000000   Number         0  stubs.o ABSOLUTE
    _printf_truncate_unsigned                0x00000000   Number         0  stubs.o ABSOLUTE
    _printf_u                                0x00000000   Number         0  stubs.o ABSOLUTE
    _printf_wc                               0x00000000   Number         0  stubs.o ABSOLUTE
    _printf_wctomb                           0x00000000   Number         0  stubs.o ABSOLUTE
    _printf_widthprec                        0x00000000   Number         0  stubs.o ABSOLUTE
    _printf_x                                0x00000000   Number         0  stubs.o ABSOLUTE
    __cpp_initialize__aeabi_                  - Undefined Weak Reference
    __cxa_finalize                            - Undefined Weak Reference
    _clock_init                               - Undefined Weak Reference
    _microlib_exit                            - Undefined Weak Reference
    _scanf_longlong                           - Undefined Weak Reference
    _scanf_real                               - Undefined Weak Reference
    _scanf_string                             - Undefined Weak Reference
    __Vectors_Size                           0x00000150   Number         0  startup_stm32f10x_cl.o ABSOLUTE
    __Vectors                                0x08005000   Data           4  startup_stm32f10x_cl.o(RESET)
    __Vectors_End                            0x08005150   Data           0  startup_stm32f10x_cl.o(RESET)
    __main                                   0x08005151   Thumb Code     0  entry.o(.ARM.Collect$$$$00000000)
    _main_stk                                0x08005151   Thumb Code     0  entry2.o(.ARM.Collect$$$$00000001)
    _main_scatterload                        0x08005155   Thumb Code     0  entry5.o(.ARM.Collect$$$$00000004)
    __main_after_scatterload                 0x08005159   Thumb Code     0  entry5.o(.ARM.Collect$$$$00000004)
    _main_clock                              0x08005159   Thumb Code     0  entry7b.o(.ARM.Collect$$$$00000008)
    _main_cpp_init                           0x08005159   Thumb Code     0  entry8b.o(.ARM.Collect$$$$0000000A)
    _main_init                               0x08005159   Thumb Code     0  entry9a.o(.ARM.Collect$$$$0000000B)
    __rt_final_cpp                           0x08005161   Thumb Code     0  entry10a.o(.ARM.Collect$$$$0000000D)
    __rt_final_exit                          0x08005161   Thumb Code     0  entry11a.o(.ARM.Collect$$$$0000000F)
    main                                     0x08005361   Thumb Code    56  main.o(.text)
    MotorBedStop                             0x08005441   Thumb Code   122  hal_process_control.o(.text)
    MotorReadEncoder                         0x080054bb   Thumb Code   130  hal_process_control.o(.text)
    MotroBedPositionRun                      0x0800553d   Thumb Code   168  hal_process_control.o(.text)
    MotorEnable                              0x080055e5   Thumb Code   134  hal_process_control.o(.text)
    MotorSetMode                             0x0800566b   Thumb Code   120  hal_process_control.o(.text)
    RunBed                                   0x080056e3   Thumb Code   432  hal_process_control.o(.text)
    MotorHomeRun                             0x08005893   Thumb Code   122  hal_process_control.o(.text)
    ResetZeroBedUp                           0x0800590d   Thumb Code   284  hal_process_control.o(.text)
    MotorDisEnable                           0x08005a29   Thumb Code   122  hal_process_control.o(.text)
    MotorDisableAll                          0x08005aa3   Thumb Code   100  hal_process_control.o(.text)
    MotorStop                                0x08005b07   Thumb Code   122  hal_process_control.o(.text)
    MotorTurnStop                            0x08005b81   Thumb Code    52  hal_process_control.o(.text)
    MotorMoveStop                            0x08005bb5   Thumb Code    52  hal_process_control.o(.text)
    MotorStopAll                             0x08005be9   Thumb Code    12  hal_process_control.o(.text)
    DecelerationDistance                     0x08005bf5   Thumb Code   392  hal_process_control.o(.text)
    RevMovePosition                          0x08005d7d   Thumb Code    66  hal_process_control.o(.text)
    MotorVelocityRun                         0x08005dbf   Thumb Code   126  hal_process_control.o(.text)
    MoveRorateSpeedChange                    0x08005e3d   Thumb Code   162  hal_process_control.o(.text)
    MoveRorateSpeedSet                       0x08005edf   Thumb Code   278  hal_process_control.o(.text)
    RevTurnPosition                          0x08005ff5   Thumb Code    66  hal_process_control.o(.text)
    CheckTurnAngleVal                        0x08006037   Thumb Code   122  hal_process_control.o(.text)
    MotorClearEncoder                        0x080060b1   Thumb Code   192  hal_process_control.o(.text)
    ZeroMoveMotorEncoder                     0x08006171   Thumb Code    52  hal_process_control.o(.text)
    MotorPositionRun                         0x080061a5   Thumb Code   210  hal_process_control.o(.text)
    TurnToAngleVal                           0x08006277   Thumb Code   192  hal_process_control.o(.text)
    ContrlRunRorate                          0x08006337   Thumb Code   420  hal_process_control.o(.text)
    MoveLRSpeedChange                        0x080064db   Thumb Code   180  hal_process_control.o(.text)
    MoveLRSpeedSet                           0x0800658f   Thumb Code   446  hal_process_control.o(.text)
    ContrlRunLimitedLR                       0x0800674d   Thumb Code   440  hal_process_control.o(.text)
    MoveFBSpeedChange                        0x08006905   Thumb Code   180  hal_process_control.o(.text)
    MoveFBSpeedSet                           0x080069b9   Thumb Code   306  hal_process_control.o(.text)
    ContrlRunLimitedFB                       0x08006aeb   Thumb Code   456  hal_process_control.o(.text)
    ContrlRunLR                              0x08006cb3   Thumb Code   384  hal_process_control.o(.text)
    ContrlRunFB                              0x08006e33   Thumb Code   426  hal_process_control.o(.text)
    MotorSetDCC                              0x08006fdd   Thumb Code   120  hal_process_control.o(.text)
    MotorSetACC                              0x08007055   Thumb Code   120  hal_process_control.o(.text)
    ElmoMotorHome                            0x080070cd   Thumb Code   150  hal_process_control.o(.text)
    ResetZeroWheel                           0x08007163   Thumb Code  1242  hal_process_control.o(.text)
    hal_process_control                      0x0800763d   Thumb Code   506  hal_process_control.o(.text)
    StopBed                                  0x08007837   Thumb Code    50  hal_process_control.o(.text)
    ReadBedPos                               0x08007869   Thumb Code    68  hal_process_control.o(.text)
    ContrlBedUpDown                          0x080078ad   Thumb Code    96  hal_process_control.o(.text)
    TestBedMotor                             0x0800790d   Thumb Code   226  hal_process_control.o(.text)
    ResetZeroBedDown                         0x080079ef   Thumb Code   196  hal_process_control.o(.text)
    CMDReadBed                               0x08007ab3   Thumb Code    48  hal_process_control.o(.text)
    CMDClearBed                              0x08007ae3   Thumb Code    72  hal_process_control.o(.text)
    MotorReadIO                              0x08007b2b   Thumb Code   128  hal_process_control.o(.text)
    MotorReadError                           0x08007bab   Thumb Code   120  hal_process_control.o(.text)
    MotorClearError                          0x08007c23   Thumb Code   114  hal_process_control.o(.text)
    MotionTurningPosition                    0x08007c95   Thumb Code    72  hal_process_control.o(.text)
    ForwardWheel                             0x08007cdd   Thumb Code    92  hal_process_control.o(.text)
    BackwardWheel                            0x08007d39   Thumb Code   152  hal_process_control.o(.text)
    RightWheel                               0x08007dd1   Thumb Code   118  hal_process_control.o(.text)
    LeftWheel                                0x08007e47   Thumb Code   118  hal_process_control.o(.text)
    TestTurnMotor                            0x08007ebd   Thumb Code   452  hal_process_control.o(.text)
    TestMoveMotor                            0x08008081   Thumb Code   462  hal_process_control.o(.text)
    Mute_Net_Write                           0x0800828b   Thumb Code    78  hal_process_serves.o(.text)
    PackData                                 0x080082d9   Thumb Code   266  hal_process_serves.o(.text)
    CheckFrame                               0x080083e3   Thumb Code    58  hal_process_serves.o(.text)
    UnPackData                               0x0800841d   Thumb Code   178  hal_process_serves.o(.text)
    tcp_server_process                       0x08008733   Thumb Code   354  hal_process_serves.o(.text)
    StringToParas                            0x08008895   Thumb Code   100  hal_process_serves.o(.text)
    NetPrintf                                0x080088f9   Thumb Code    54  hal_process_serves.o(.text)
    Check7D7E7FNum                           0x0800892f   Thumb Code    40  hal_process_serves.o(.text)
    PatrolDataDispose                        0x08008a95   Thumb Code   378  hal_process_collect.o(.text)
    AvoidObstacleData2                       0x08008c0f   Thumb Code   196  hal_process_collect.o(.text)
    AvoidObstacleData1                       0x08008cd3   Thumb Code   194  hal_process_collect.o(.text)
    hal_process_collect                      0x08008d95   Thumb Code  1154  hal_process_collect.o(.text)
    hal_process_debug                        0x0800925d   Thumb Code  1604  hal_process_debug.o(.text)
    ClearFpidBpid                            0x0800991d   Thumb Code    20  patrol_control.o(.text)
    PIDCalc                                  0x08009931   Thumb Code   150  patrol_control.o(.text)
    getdis                                   0x080099c7   Thumb Code  1022  patrol_control.o(.text)
    un_data_frame                            0x08009dc5   Thumb Code   338  patrol_control.o(.text)
    OnReadIR                                 0x08009f17   Thumb Code   476  patrol_control.o(.text)
    isFrontBlimited                          0x0800a0f3   Thumb Code   146  patrol_control.o(.text)
    isBackFlimited                           0x0800a185   Thumb Code    20  patrol_control.o(.text)
    isLeftRlimited                           0x0800a199   Thumb Code   136  patrol_control.o(.text)
    isRightLlimited                          0x0800a221   Thumb Code    40  patrol_control.o(.text)
    PidFlashAvrB                             0x0800a249   Thumb Code    42  patrol_control.o(.text)
    PidFlashAvrF                             0x0800a273   Thumb Code    42  patrol_control.o(.text)
    Tracking                                 0x0800a29d   Thumb Code  1170  patrol_control.o(.text)
    TrackingLR                               0x0800a72f   Thumb Code   726  patrol_control.o(.text)
    Barrier                                  0x0800aa05   Thumb Code    60  patrol_control.o(.text)
    BSP_NVIC_Configuration                   0x0800aa45   Thumb Code   288  bsp.o(.text)
    BSP_GPIO_Init                            0x0800ab65   Thumb Code   794  bsp.o(.text)
    BSP_WDTDOG_Init                          0x0800ae7f   Thumb Code    30  bsp.o(.text)
    BSP_CPU_DisAllInterupt                   0x0800ae9d   Thumb Code    10  bsp.o(.text)
    BSP_CPU_Reset                            0x0800aea7   Thumb Code    30  bsp.o(.text)
    BSP_RCC_Configuration                    0x0800aec5   Thumb Code    36  bsp.o(.text)
    BSP_SYSCLKConfig_FromStop                0x0800aee9   Thumb Code    72  bsp.o(.text)
    BSP_PVD_Init                             0x0800af31   Thumb Code    72  bsp.o(.text)
    BSP_PVDEXIT_IT_CON                       0x0800af79   Thumb Code    42  bsp.o(.text)
    myPrintf                                 0x0800afa3   Thumb Code   120  bsp.o(.text)
    GetCpuHwID                               0x0800b01b   Thumb Code    30  bsp.o(.text)
    SoftDelayMS                              0x0800b039   Thumb Code    34  bsp.o(.text)
    Hex2BCD                                  0x0800b05b   Thumb Code    34  bsp.o(.text)
    IsIntString                              0x0800b07d   Thumb Code    40  bsp.o(.text)
    IsA2ZString                              0x0800b0a5   Thumb Code    52  bsp.o(.text)
    IsHexString                              0x0800b0d9   Thumb Code    64  bsp.o(.text)
    IsDotIntString                           0x0800b119   Thumb Code    90  bsp.o(.text)
    Asc2Hex                                  0x0800b173   Thumb Code    32  bsp.o(.text)
    String2HexArray                          0x0800b193   Thumb Code   144  bsp.o(.text)
    ADCalculateProcess                       0x0800b223   Thumb Code    82  bsp.o(.text)
    CheckIsNum                               0x0800b275   Thumb Code    44  bsp.o(.text)
    CheckIsVerb                              0x0800b2a1   Thumb Code    66  bsp.o(.text)
    MakeStrNum2USC2                          0x0800b2e3   Thumb Code    68  bsp.o(.text)
    CheckPhoneFormat                         0x0800b327   Thumb Code   264  bsp.o(.text)
    SNCode2barCode                           0x0800b42f   Thumb Code    30  bsp.o(.text)
    StringAdd                                0x0800b44d   Thumb Code    54  bsp.o(.text)
    StringConnect                            0x0800b483   Thumb Code    60  bsp.o(.text)
    Hex2StringArray                          0x0800b4bf   Thumb Code    56  bsp.o(.text)
    StringSearch                             0x0800b4f7   Thumb Code    88  bsp.o(.text)
    Mktime                                   0x0800b54f   Thumb Code    94  bsp.o(.text)
    Gettime                                  0x0800b5ad   Thumb Code    48  bsp.o(.text)
    SumCheck16Pro                            0x0800b5dd   Thumb Code    32  bsp.o(.text)
    XorCheck16Pro                            0x0800b5fd   Thumb Code    28  bsp.o(.text)
    OSTmr_Count_Start                        0x0800b619   Thumb Code    26  bsp.o(.text)
    OSTmr_Count_Get                          0x0800b633   Thumb Code    56  bsp.o(.text)
    BSP_Write_Para                           0x0800b66b   Thumb Code   136  bsp.o(.text)
    BSP_Read_Para                            0x0800b6f3   Thumb Code    16  bsp.o(.text)
    BSP_CANX_Init                            0x0800b715   Thumb Code    76  bsp_can.o(.text)
    BSP_CAN_Filter                           0x0800b761   Thumb Code   126  bsp_can.o(.text)
    BSP_CAN_SendMsg                          0x0800b7df   Thumb Code   172  bsp_can.o(.text)
    CAN1_RX0_IRQHandler                      0x0800b88b   Thumb Code    82  bsp_can.o(.text)
    BSP_Ethernet_Configuration               0x0800b8f9   Thumb Code   208  bsp_eth.o(.text)
    BSP_EthernetInit                         0x0800b9c9   Thumb Code   210  bsp_eth.o(.text)
    BSP_USART_Config                         0x0800baad   Thumb Code   116  bsp_usart.o(.text)
    fputc                                    0x0800bb21   Thumb Code    32  bsp_usart.o(.text)
    UART5_IRQHandler                         0x0800bb41   Thumb Code    80  bsp_usart.o(.text)
    ClearUart5Buff                           0x0800bb91   Thumb Code    20  bsp_usart.o(.text)
    USART1_IRQHandler                        0x0800bba5   Thumb Code   260  bsp_usart.o(.text)
    USART2_IRQHandler                        0x0800bca9   Thumb Code   260  bsp_usart.o(.text)
    USART3_IRQHandler                        0x0800bdad   Thumb Code   216  bsp_usart.o(.text)
    BSP_RS485_SendData                       0x0800be85   Thumb Code    66  bsp_usart.o(.text)
    BSP_RS232_SendData                       0x0800bec7   Thumb Code    46  bsp_usart.o(.text)
    BSP_TIM3_Output_PWM_Init                 0x0800bf2d   Thumb Code   114  bsp_tim.o(.text)
    BSP_TIM4_Input_Capture_Init              0x0800bf9f   Thumb Code   102  bsp_tim.o(.text)
    BSP_TIM3_Init                            0x0800c005   Thumb Code   200  bsp_tim.o(.text)
    BSP_TIM4_Init                            0x0800c0cd   Thumb Code   208  bsp_tim.o(.text)
    SPI_ReadWriteByte                        0x0800c1b5   Thumb Code    52  bsp_spi.o(.text)
    BSP_Write_DOUT1_24                       0x0800c217   Thumb Code   108  bsp_spi.o(.text)
    BSP_SPI1_Init                            0x0800c283   Thumb Code   136  bsp_spi.o(.text)
    BSP_74HC595_Out                          0x0800c30b   Thumb Code    66  bsp_spi.o(.text)
    BSP_Read_DIN1_8                          0x0800c34d   Thumb Code    22  bsp_spi.o(.text)
    BSP_Read_DIN9_24                         0x0800c363   Thumb Code   160  bsp_spi.o(.text)
    BSP_SPI_FLASH_SectorErase                0x0800c421   Thumb Code    86  bsp_spi.o(.text)
    BSP_SPI_FLASH_BulkErase                  0x0800c477   Thumb Code    56  bsp_spi.o(.text)
    BSP_SPI_FLASH_PageWrite                  0x0800c4af   Thumb Code   420  bsp_spi.o(.text)
    BSP_SPI_FLASH_BufferWrite                0x0800c653   Thumb Code   290  bsp_spi.o(.text)
    BSP_SPI_FLASH_BufferRead                 0x0800c775   Thumb Code   190  bsp_spi.o(.text)
    BSP_SPI_FLASH_ReadID                     0x0800c833   Thumb Code   116  bsp_spi.o(.text)
    NMI_Handler                              0x0800c8b5   Thumb Code     2  stm32f10x_it.o(.text)
    HardFault_Handler                        0x0800c8b7   Thumb Code    10  stm32f10x_it.o(.text)
    MemManage_Handler                        0x0800c8c1   Thumb Code     4  stm32f10x_it.o(.text)
    BusFault_Handler                         0x0800c8c5   Thumb Code     4  stm32f10x_it.o(.text)
    UsageFault_Handler                       0x0800c8c9   Thumb Code     4  stm32f10x_it.o(.text)
    SVC_Handler                              0x0800c8cd   Thumb Code     2  stm32f10x_it.o(.text)
    DebugMon_Handler                         0x0800c8cf   Thumb Code     2  stm32f10x_it.o(.text)
    ETH_IRQHandler                           0x0800c8d1   Thumb Code    40  stm32f10x_it.o(.text)
    WWDG_IRQHandler                          0x0800c8f9   Thumb Code     2  stm32f10x_it.o(.text)
    PVD_IRQHandler                           0x0800c8fb   Thumb Code     2  stm32f10x_it.o(.text)
    TAMPER_IRQHandler                        0x0800c8fd   Thumb Code     2  stm32f10x_it.o(.text)
    RTC_IRQHandler                           0x0800c8ff   Thumb Code     2  stm32f10x_it.o(.text)
    FLASH_IRQHandler                         0x0800c901   Thumb Code     2  stm32f10x_it.o(.text)
    RCC_IRQHandler                           0x0800c903   Thumb Code     2  stm32f10x_it.o(.text)
    EXTI0_IRQHandler                         0x0800c905   Thumb Code     2  stm32f10x_it.o(.text)
    EXTI1_IRQHandler                         0x0800c907   Thumb Code     2  stm32f10x_it.o(.text)
    EXTI2_IRQHandler                         0x0800c909   Thumb Code     2  stm32f10x_it.o(.text)
    EXTI3_IRQHandler                         0x0800c90b   Thumb Code     2  stm32f10x_it.o(.text)
    DMA1_Channel1_IRQHandler                 0x0800c90d   Thumb Code     2  stm32f10x_it.o(.text)
    DMA1_Channel2_IRQHandler                 0x0800c90f   Thumb Code     2  stm32f10x_it.o(.text)
    DMA1_Channel3_IRQHandler                 0x0800c911   Thumb Code     2  stm32f10x_it.o(.text)
    DMA1_Channel4_IRQHandler                 0x0800c913   Thumb Code     2  stm32f10x_it.o(.text)
    DMA1_Channel5_IRQHandler                 0x0800c915   Thumb Code     2  stm32f10x_it.o(.text)
    DMA1_Channel6_IRQHandler                 0x0800c917   Thumb Code     2  stm32f10x_it.o(.text)
    DMA1_Channel7_IRQHandler                 0x0800c919   Thumb Code     2  stm32f10x_it.o(.text)
    ADC1_2_IRQHandler                        0x0800c91b   Thumb Code     2  stm32f10x_it.o(.text)
    USB_HP_CAN1_TX_IRQHandler                0x0800c91d   Thumb Code     2  stm32f10x_it.o(.text)
    CAN1_RX1_IRQHandler                      0x0800c91f   Thumb Code     2  stm32f10x_it.o(.text)
    CAN1_SCE_IRQHandler                      0x0800c921   Thumb Code     2  stm32f10x_it.o(.text)
    TIM1_BRK_IRQHandler                      0x0800c923   Thumb Code     2  stm32f10x_it.o(.text)
    TIM1_UP_IRQHandler                       0x0800c925   Thumb Code     2  stm32f10x_it.o(.text)
    TIM1_TRG_COM_IRQHandler                  0x0800c927   Thumb Code     2  stm32f10x_it.o(.text)
    TIM1_CC_IRQHandler                       0x0800c929   Thumb Code     2  stm32f10x_it.o(.text)
    I2C1_EV_IRQHandler                       0x0800c92b   Thumb Code     2  stm32f10x_it.o(.text)
    I2C1_ER_IRQHandler                       0x0800c92d   Thumb Code     2  stm32f10x_it.o(.text)
    I2C2_EV_IRQHandler                       0x0800c92f   Thumb Code     2  stm32f10x_it.o(.text)
    I2C2_ER_IRQHandler                       0x0800c931   Thumb Code     2  stm32f10x_it.o(.text)
    SPI1_IRQHandler                          0x0800c933   Thumb Code     2  stm32f10x_it.o(.text)
    SPI2_IRQHandler                          0x0800c935   Thumb Code     2  stm32f10x_it.o(.text)
    EXTI15_10_IRQHandler                     0x0800c937   Thumb Code     2  stm32f10x_it.o(.text)
    RTCAlarm_IRQHandler                      0x0800c939   Thumb Code     2  stm32f10x_it.o(.text)
    USBWakeUp_IRQHandler                     0x0800c93b   Thumb Code     2  stm32f10x_it.o(.text)
    SysTick_Handler                          0x0800c93d   Thumb Code    76  stm32f10x_it.o(.text)
    SystemInit                               0x0800cab9   Thumb Code    92  system_stm32f10x.o(.text)
    SystemCoreClockUpdate                    0x0800cb15   Thumb Code   232  system_stm32f10x.o(.text)
    Reset_Handler                            0x0800cc2d   Thumb Code     8  startup_stm32f10x_cl.o(.text)
    CAN1_TX_IRQHandler                       0x0800cc47   Thumb Code     0  startup_stm32f10x_cl.o(.text)
    CAN2_RX0_IRQHandler                      0x0800cc47   Thumb Code     0  startup_stm32f10x_cl.o(.text)
    CAN2_RX1_IRQHandler                      0x0800cc47   Thumb Code     0  startup_stm32f10x_cl.o(.text)
    CAN2_SCE_IRQHandler                      0x0800cc47   Thumb Code     0  startup_stm32f10x_cl.o(.text)
    CAN2_TX_IRQHandler                       0x0800cc47   Thumb Code     0  startup_stm32f10x_cl.o(.text)
    DMA2_Channel1_IRQHandler                 0x0800cc47   Thumb Code     0  startup_stm32f10x_cl.o(.text)
    DMA2_Channel2_IRQHandler                 0x0800cc47   Thumb Code     0  startup_stm32f10x_cl.o(.text)
    DMA2_Channel3_IRQHandler                 0x0800cc47   Thumb Code     0  startup_stm32f10x_cl.o(.text)
    DMA2_Channel4_IRQHandler                 0x0800cc47   Thumb Code     0  startup_stm32f10x_cl.o(.text)
    DMA2_Channel5_IRQHandler                 0x0800cc47   Thumb Code     0  startup_stm32f10x_cl.o(.text)
    ETH_WKUP_IRQHandler                      0x0800cc47   Thumb Code     0  startup_stm32f10x_cl.o(.text)
    EXTI4_IRQHandler                         0x0800cc47   Thumb Code     0  startup_stm32f10x_cl.o(.text)
    EXTI9_5_IRQHandler                       0x0800cc47   Thumb Code     0  startup_stm32f10x_cl.o(.text)
    OTG_FS_IRQHandler                        0x0800cc47   Thumb Code     0  startup_stm32f10x_cl.o(.text)
    OTG_FS_WKUP_IRQHandler                   0x0800cc47   Thumb Code     0  startup_stm32f10x_cl.o(.text)
    SPI3_IRQHandler                          0x0800cc47   Thumb Code     0  startup_stm32f10x_cl.o(.text)
    TIM2_IRQHandler                          0x0800cc47   Thumb Code     0  startup_stm32f10x_cl.o(.text)
    TIM3_IRQHandler                          0x0800cc47   Thumb Code     0  startup_stm32f10x_cl.o(.text)
    TIM4_IRQHandler                          0x0800cc47   Thumb Code     0  startup_stm32f10x_cl.o(.text)
    TIM5_IRQHandler                          0x0800cc47   Thumb Code     0  startup_stm32f10x_cl.o(.text)
    TIM6_IRQHandler                          0x0800cc47   Thumb Code     0  startup_stm32f10x_cl.o(.text)
    TIM7_IRQHandler                          0x0800cc47   Thumb Code     0  startup_stm32f10x_cl.o(.text)
    UART4_IRQHandler                         0x0800cc47   Thumb Code     0  startup_stm32f10x_cl.o(.text)
    NVIC_PriorityGroupConfig                 0x0800cc51   Thumb Code    10  misc.o(.text)
    NVIC_Init                                0x0800cc5b   Thumb Code   102  misc.o(.text)
    NVIC_SetVectorTable                      0x0800ccc1   Thumb Code    14  misc.o(.text)
    NVIC_SystemLPConfig                      0x0800cccf   Thumb Code    34  misc.o(.text)
    SysTick_CLKSourceConfig                  0x0800ccf1   Thumb Code    40  misc.o(.text)
    ETH_DeInit                               0x0800cd2d   Thumb Code    22  stm32_eth.o(.text)
    ETH_WritePHYRegister                     0x0800cd5f   Thumb Code    96  stm32_eth.o(.text)
    ETH_ReadPHYRegister                      0x0800cdbf   Thumb Code    98  stm32_eth.o(.text)
    ETH_Init                                 0x0800ce21   Thumb Code   576  stm32_eth.o(.text)
    ETH_StructInit                           0x0800d061   Thumb Code   168  stm32_eth.o(.text)
    ETH_DMAReceptionCmd                      0x0800d109   Thumb Code    30  stm32_eth.o(.text)
    ETH_DMATransmissionCmd                   0x0800d127   Thumb Code    66  stm32_eth.o(.text)
    ETH_MACReceptionCmd                      0x0800d169   Thumb Code    30  stm32_eth.o(.text)
    ETH_FlushTransmitFIFO                    0x0800d187   Thumb Code    14  stm32_eth.o(.text)
    ETH_MACTransmissionCmd                   0x0800d195   Thumb Code    30  stm32_eth.o(.text)
    ETH_Start                                0x0800d1b3   Thumb Code    32  stm32_eth.o(.text)
    ETH_HandleTxPkt                          0x0800d1d3   Thumb Code   176  stm32_eth.o(.text)
    ETH_HandleRxPkt                          0x0800d283   Thumb Code   196  stm32_eth.o(.text)
    ETH_GetDMARxDescFrameLength              0x0800d347   Thumb Code    10  stm32_eth.o(.text)
    ETH_GetRxPktSize                         0x0800d351   Thumb Code    66  stm32_eth.o(.text)
    ETH_DropRxPkt                            0x0800d393   Thumb Code    78  stm32_eth.o(.text)
    ETH_PHYLoopBackCmd                       0x0800d3e1   Thumb Code    52  stm32_eth.o(.text)
    ETH_GetFlowControlBusyStatus             0x0800d415   Thumb Code    20  stm32_eth.o(.text)
    ETH_InitiatePauseControlFrame            0x0800d429   Thumb Code    14  stm32_eth.o(.text)
    ETH_BackPressureActivationCmd            0x0800d437   Thumb Code    30  stm32_eth.o(.text)
    ETH_GetMACFlagStatus                     0x0800d455   Thumb Code    20  stm32_eth.o(.text)
    ETH_GetMACITStatus                       0x0800d469   Thumb Code    20  stm32_eth.o(.text)
    ETH_MACITConfig                          0x0800d47d   Thumb Code    26  stm32_eth.o(.text)
    ETH_MACAddressConfig                     0x0800d497   Thumb Code    46  stm32_eth.o(.text)
    ETH_GetMACAddress                        0x0800d4c5   Thumb Code    36  stm32_eth.o(.text)
    ETH_MACAddressPerfectFilterCmd           0x0800d4e9   Thumb Code    38  stm32_eth.o(.text)
    ETH_MACAddressFilterConfig               0x0800d50f   Thumb Code    40  stm32_eth.o(.text)
    ETH_MACAddressMaskBytesFilterConfig      0x0800d537   Thumb Code    50  stm32_eth.o(.text)
    ETH_DMATxDescChainInit                   0x0800d569   Thumb Code    70  stm32_eth.o(.text)
    ETH_DMATxDescRingInit                    0x0800d5af   Thumb Code    72  stm32_eth.o(.text)
    ETH_GetDMATxDescFlagStatus               0x0800d5f7   Thumb Code    18  stm32_eth.o(.text)
    ETH_GetDMATxDescCollisionCount           0x0800d609   Thumb Code    10  stm32_eth.o(.text)
    ETH_SetDMATxDescOwnBit                   0x0800d613   Thumb Code    10  stm32_eth.o(.text)
    ETH_DMATxDescTransmitITConfig            0x0800d61d   Thumb Code    22  stm32_eth.o(.text)
    ETH_DMATxDescFrameSegmentConfig          0x0800d633   Thumb Code     8  stm32_eth.o(.text)
    ETH_DMATxDescChecksumInsertionConfig     0x0800d63b   Thumb Code     8  stm32_eth.o(.text)
    ETH_DMATxDescCRCCmd                      0x0800d643   Thumb Code    22  stm32_eth.o(.text)
    ETH_DMATxDescEndOfRingCmd                0x0800d659   Thumb Code    22  stm32_eth.o(.text)
    ETH_DMATxDescSecondAddressChainedCmd     0x0800d66f   Thumb Code    22  stm32_eth.o(.text)
    ETH_DMATxDescShortFramePaddingCmd        0x0800d685   Thumb Code    22  stm32_eth.o(.text)
    ETH_DMATxDescTimeStampCmd                0x0800d69b   Thumb Code    22  stm32_eth.o(.text)
    ETH_DMATxDescBufferSizeConfig            0x0800d6b1   Thumb Code    14  stm32_eth.o(.text)
    ETH_DMARxDescChainInit                   0x0800d6bf   Thumb Code    76  stm32_eth.o(.text)
    ETH_DMARxDescRingInit                    0x0800d70b   Thumb Code    86  stm32_eth.o(.text)
    ETH_GetDMARxDescFlagStatus               0x0800d761   Thumb Code    18  stm32_eth.o(.text)
    ETH_SetDMARxDescOwnBit                   0x0800d773   Thumb Code    10  stm32_eth.o(.text)
    ETH_DMARxDescReceiveITConfig             0x0800d77d   Thumb Code    22  stm32_eth.o(.text)
    ETH_DMARxDescEndOfRingCmd                0x0800d793   Thumb Code    22  stm32_eth.o(.text)
    ETH_DMARxDescSecondAddressChainedCmd     0x0800d7a9   Thumb Code    22  stm32_eth.o(.text)
    ETH_GetDMARxDescBufferSize               0x0800d7bf   Thumb Code    20  stm32_eth.o(.text)
    ETH_SoftwareReset                        0x0800d7d3   Thumb Code    14  stm32_eth.o(.text)
    ETH_GetSoftwareResetStatus               0x0800d7e1   Thumb Code    20  stm32_eth.o(.text)
    ETH_GetDMAFlagStatus                     0x0800d7f5   Thumb Code    20  stm32_eth.o(.text)
    ETH_DMAClearFlag                         0x0800d809   Thumb Code     6  stm32_eth.o(.text)
    ETH_GetDMAITStatus                       0x0800d80f   Thumb Code    20  stm32_eth.o(.text)
    ETH_DMAClearITPendingBit                 0x0800d823   Thumb Code     6  stm32_eth.o(.text)
    ETH_GetTransmitProcessState              0x0800d829   Thumb Code    10  stm32_eth.o(.text)
    ETH_GetReceiveProcessState               0x0800d833   Thumb Code    10  stm32_eth.o(.text)
    ETH_GetFlushTransmitFIFOStatus           0x0800d83d   Thumb Code    20  stm32_eth.o(.text)
    ETH_DMAITConfig                          0x0800d851   Thumb Code    26  stm32_eth.o(.text)
    ETH_GetDMAOverflowStatus                 0x0800d86b   Thumb Code    20  stm32_eth.o(.text)
    ETH_GetRxOverflowMissedFrameCounter      0x0800d87f   Thumb Code    10  stm32_eth.o(.text)
    ETH_GetBufferUnavailableMissedFrameCounter 0x0800d889   Thumb Code     8  stm32_eth.o(.text)
    ETH_GetCurrentTxDescStartAddress         0x0800d891   Thumb Code     6  stm32_eth.o(.text)
    ETH_GetCurrentRxDescStartAddress         0x0800d897   Thumb Code     6  stm32_eth.o(.text)
    ETH_GetCurrentTxBufferAddress            0x0800d89d   Thumb Code     6  stm32_eth.o(.text)
    ETH_GetCurrentRxBufferAddress            0x0800d8a3   Thumb Code     6  stm32_eth.o(.text)
    ETH_ResumeDMATransmission                0x0800d8a9   Thumb Code     8  stm32_eth.o(.text)
    ETH_ResumeDMAReception                   0x0800d8b1   Thumb Code     8  stm32_eth.o(.text)
    ETH_ResetWakeUpFrameFilterRegisterPointer 0x0800d8b9   Thumb Code    14  stm32_eth.o(.text)
    ETH_SetWakeUpFrameFilterRegister         0x0800d8c7   Thumb Code    24  stm32_eth.o(.text)
    ETH_GlobalUnicastWakeUpCmd               0x0800d8df   Thumb Code    30  stm32_eth.o(.text)
    ETH_GetPMTFlagStatus                     0x0800d8fd   Thumb Code    20  stm32_eth.o(.text)
    ETH_WakeUpFrameDetectionCmd              0x0800d911   Thumb Code    30  stm32_eth.o(.text)
    ETH_MagicPacketDetectionCmd              0x0800d92f   Thumb Code    46  stm32_eth.o(.text)
    ETH_PowerDownCmd                         0x0800d95d   Thumb Code    30  stm32_eth.o(.text)
    ETH_MMCCounterFreezeCmd                  0x0800d97b   Thumb Code    34  stm32_eth.o(.text)
    ETH_MMCResetOnReadCmd                    0x0800d99d   Thumb Code    34  stm32_eth.o(.text)
    ETH_MMCCounterRolloverCmd                0x0800d9bf   Thumb Code    34  stm32_eth.o(.text)
    ETH_MMCCountersReset                     0x0800d9e1   Thumb Code    16  stm32_eth.o(.text)
    ETH_MMCITConfig                          0x0800d9f1   Thumb Code    78  stm32_eth.o(.text)
    ETH_GetMMCITStatus                       0x0800da3f   Thumb Code    58  stm32_eth.o(.text)
    ETH_GetMMCRegister                       0x0800da79   Thumb Code     8  stm32_eth.o(.text)
    ETH_EnablePTPTimeStampAddend             0x0800da81   Thumb Code    14  stm32_eth.o(.text)
    ETH_EnablePTPTimeStampInterruptTrigger   0x0800da8f   Thumb Code    14  stm32_eth.o(.text)
    ETH_EnablePTPTimeStampUpdate             0x0800da9d   Thumb Code    14  stm32_eth.o(.text)
    ETH_InitializePTPTimeStamp               0x0800daab   Thumb Code    14  stm32_eth.o(.text)
    ETH_PTPUpdateMethodConfig                0x0800dab9   Thumb Code    30  stm32_eth.o(.text)
    ETH_PTPTimeStampCmd                      0x0800dad7   Thumb Code    30  stm32_eth.o(.text)
    ETH_GetPTPFlagStatus                     0x0800daf5   Thumb Code    20  stm32_eth.o(.text)
    ETH_SetPTPSubSecondIncrement             0x0800db09   Thumb Code     8  stm32_eth.o(.text)
    ETH_SetPTPTimeStampUpdate                0x0800db11   Thumb Code    20  stm32_eth.o(.text)
    ETH_SetPTPTimeStampAddend                0x0800db25   Thumb Code     8  stm32_eth.o(.text)
    ETH_SetPTPTargetTime                     0x0800db2d   Thumb Code    12  stm32_eth.o(.text)
    ETH_GetPTPRegister                       0x0800db39   Thumb Code     8  stm32_eth.o(.text)
    ETH_DMAPTPTxDescChainInit                0x0800db41   Thumb Code    98  stm32_eth.o(.text)
    ETH_DMAPTPRxDescChainInit                0x0800dba3   Thumb Code   104  stm32_eth.o(.text)
    ETH_HandlePTPTxPkt                       0x0800dc0b   Thumb Code   354  stm32_eth.o(.text)
    ETH_HandlePTPRxPkt                       0x0800dd6d   Thumb Code   248  stm32_eth.o(.text)
    CAN_DeInit                               0x0800de71   Thumb Code    50  stm32f10x_can.o(.text)
    CAN_Init                                 0x0800dea3   Thumb Code   276  stm32f10x_can.o(.text)
    CAN_FilterInit                           0x0800dfb7   Thumb Code   258  stm32f10x_can.o(.text)
    CAN_StructInit                           0x0800e0b9   Thumb Code    32  stm32f10x_can.o(.text)
    CAN_SlaveStartBank                       0x0800e0d9   Thumb Code    48  stm32f10x_can.o(.text)
    CAN_DBGFreeze                            0x0800e109   Thumb Code    22  stm32f10x_can.o(.text)
    CAN_TTComModeCmd                         0x0800e11f   Thumb Code   118  stm32f10x_can.o(.text)
    CAN_Transmit                             0x0800e195   Thumb Code   304  stm32f10x_can.o(.text)
    CAN_TransmitStatus                       0x0800e2c5   Thumb Code   138  stm32f10x_can.o(.text)
    CAN_CancelTransmit                       0x0800e34f   Thumb Code    48  stm32f10x_can.o(.text)
    CAN_Receive                              0x0800e37f   Thumb Code   240  stm32f10x_can.o(.text)
    CAN_FIFORelease                          0x0800e46f   Thumb Code    22  stm32f10x_can.o(.text)
    CAN_MessagePending                       0x0800e485   Thumb Code    30  stm32f10x_can.o(.text)
    CAN_OperatingModeRequest                 0x0800e4a3   Thumb Code   162  stm32f10x_can.o(.text)
    CAN_Sleep                                0x0800e545   Thumb Code    30  stm32f10x_can.o(.text)
    CAN_WakeUp                               0x0800e563   Thumb Code    48  stm32f10x_can.o(.text)
    CAN_GetLastErrorCode                     0x0800e593   Thumb Code    12  stm32f10x_can.o(.text)
    CAN_GetReceiveErrorCounter               0x0800e59f   Thumb Code    10  stm32f10x_can.o(.text)
    CAN_GetLSBTransmitErrorCounter           0x0800e5a9   Thumb Code    12  stm32f10x_can.o(.text)
    CAN_ITConfig                             0x0800e5b5   Thumb Code    18  stm32f10x_can.o(.text)
    CAN_GetFlagStatus                        0x0800e5c7   Thumb Code   120  stm32f10x_can.o(.text)
    CAN_ClearFlag                            0x0800e63f   Thumb Code    52  stm32f10x_can.o(.text)
    CAN_GetITStatus                          0x0800e683   Thumb Code   308  stm32f10x_can.o(.text)
    CAN_ClearITPendingBit                    0x0800e7b7   Thumb Code   162  stm32f10x_can.o(.text)
    EXTI_DeInit                              0x0800e85d   Thumb Code    28  stm32f10x_exti.o(.text)
    EXTI_Init                                0x0800e879   Thumb Code   142  stm32f10x_exti.o(.text)
    EXTI_StructInit                          0x0800e907   Thumb Code    16  stm32f10x_exti.o(.text)
    EXTI_GenerateSWInterrupt                 0x0800e917   Thumb Code    16  stm32f10x_exti.o(.text)
    EXTI_GetFlagStatus                       0x0800e927   Thumb Code    22  stm32f10x_exti.o(.text)
    EXTI_ClearFlag                           0x0800e93d   Thumb Code     8  stm32f10x_exti.o(.text)
    EXTI_GetITStatus                         0x0800e945   Thumb Code    34  stm32f10x_exti.o(.text)
    EXTI_ClearITPendingBit                   0x0800e967   Thumb Code     8  stm32f10x_exti.o(.text)
    FLASH_SetLatency                         0x0800e979   Thumb Code    18  stm32f10x_flash.o(.text)
    FLASH_HalfCycleAccessCmd                 0x0800e98b   Thumb Code    22  stm32f10x_flash.o(.text)
    FLASH_PrefetchBufferCmd                  0x0800e9a1   Thumb Code    22  stm32f10x_flash.o(.text)
    FLASH_Unlock                             0x0800e9b7   Thumb Code    12  stm32f10x_flash.o(.text)
    FLASH_UnlockBank1                        0x0800e9c3   Thumb Code    12  stm32f10x_flash.o(.text)
    FLASH_Lock                               0x0800e9cf   Thumb Code    14  stm32f10x_flash.o(.text)
    FLASH_LockBank1                          0x0800e9dd   Thumb Code    14  stm32f10x_flash.o(.text)
    FLASH_GetBank1Status                     0x0800e9eb   Thumb Code    48  stm32f10x_flash.o(.text)
    FLASH_WaitForLastOperation               0x0800ea1b   Thumb Code    38  stm32f10x_flash.o(.text)
    FLASH_ErasePage                          0x0800ea41   Thumb Code    72  stm32f10x_flash.o(.text)
    FLASH_EraseAllPages                      0x0800ea89   Thumb Code    68  stm32f10x_flash.o(.text)
    FLASH_WaitForLastBank1Operation          0x0800eacd   Thumb Code    38  stm32f10x_flash.o(.text)
    FLASH_EraseAllBank1Pages                 0x0800eaf3   Thumb Code    68  stm32f10x_flash.o(.text)
    FLASH_GetReadOutProtectionStatus         0x0800eb37   Thumb Code    20  stm32f10x_flash.o(.text)
    FLASH_EraseOptionBytes                   0x0800eb4b   Thumb Code   150  stm32f10x_flash.o(.text)
    FLASH_ProgramWord                        0x0800ebe1   Thumb Code   102  stm32f10x_flash.o(.text)
    FLASH_ProgramHalfWord                    0x0800ec47   Thumb Code    60  stm32f10x_flash.o(.text)
    FLASH_ProgramOptionByteData              0x0800ec83   Thumb Code    72  stm32f10x_flash.o(.text)
    FLASH_EnableWriteProtection              0x0800eccb   Thumb Code   200  stm32f10x_flash.o(.text)
    FLASH_ReadOutProtection                  0x0800ed93   Thumb Code   156  stm32f10x_flash.o(.text)
    FLASH_UserOptionByteConfig               0x0800ee2f   Thumb Code    88  stm32f10x_flash.o(.text)
    FLASH_GetUserOptionByte                  0x0800ee87   Thumb Code     8  stm32f10x_flash.o(.text)
    FLASH_GetWriteProtectionOptionByte       0x0800ee8f   Thumb Code     6  stm32f10x_flash.o(.text)
    FLASH_GetPrefetchBufferStatus            0x0800ee95   Thumb Code    20  stm32f10x_flash.o(.text)
    FLASH_ITConfig                           0x0800eea9   Thumb Code    26  stm32f10x_flash.o(.text)
    FLASH_GetFlagStatus                      0x0800eec3   Thumb Code    42  stm32f10x_flash.o(.text)
    FLASH_ClearFlag                          0x0800eeed   Thumb Code     6  stm32f10x_flash.o(.text)
    FLASH_GetStatus                          0x0800eef3   Thumb Code    48  stm32f10x_flash.o(.text)
    GPIO_DeInit                              0x0800ef35   Thumb Code   172  stm32f10x_gpio.o(.text)
    GPIO_AFIODeInit                          0x0800efe1   Thumb Code    20  stm32f10x_gpio.o(.text)
    GPIO_Init                                0x0800eff5   Thumb Code   274  stm32f10x_gpio.o(.text)
    GPIO_StructInit                          0x0800f107   Thumb Code    16  stm32f10x_gpio.o(.text)
    GPIO_ReadInputDataBit                    0x0800f117   Thumb Code    18  stm32f10x_gpio.o(.text)
    GPIO_ReadInputData                       0x0800f129   Thumb Code     8  stm32f10x_gpio.o(.text)
    GPIO_ReadOutputDataBit                   0x0800f131   Thumb Code    18  stm32f10x_gpio.o(.text)
    GPIO_ReadOutputData                      0x0800f143   Thumb Code     8  stm32f10x_gpio.o(.text)
    GPIO_SetBits                             0x0800f14b   Thumb Code     4  stm32f10x_gpio.o(.text)
    GPIO_ResetBits                           0x0800f14f   Thumb Code     4  stm32f10x_gpio.o(.text)
    GPIO_WriteBit                            0x0800f153   Thumb Code    10  stm32f10x_gpio.o(.text)
    GPIO_Write                               0x0800f15d   Thumb Code     4  stm32f10x_gpio.o(.text)
    GPIO_PinLockConfig                       0x0800f161   Thumb Code    18  stm32f10x_gpio.o(.text)
    GPIO_EventOutputConfig                   0x0800f173   Thumb Code    26  stm32f10x_gpio.o(.text)
    GPIO_EventOutputCmd                      0x0800f18d   Thumb Code     6  stm32f10x_gpio.o(.text)
    GPIO_PinRemapConfig                      0x0800f193   Thumb Code   138  stm32f10x_gpio.o(.text)
    GPIO_EXTILineConfig                      0x0800f21d   Thumb Code    66  stm32f10x_gpio.o(.text)
    GPIO_ETH_MediaInterfaceConfig            0x0800f25f   Thumb Code     6  stm32f10x_gpio.o(.text)
    IWDG_WriteAccessCmd                      0x0800f28d   Thumb Code     6  stm32f10x_iwdg.o(.text)
    IWDG_SetPrescaler                        0x0800f293   Thumb Code     6  stm32f10x_iwdg.o(.text)
    IWDG_SetReload                           0x0800f299   Thumb Code     6  stm32f10x_iwdg.o(.text)
    IWDG_ReloadCounter                       0x0800f29f   Thumb Code    10  stm32f10x_iwdg.o(.text)
    IWDG_Enable                              0x0800f2a9   Thumb Code    10  stm32f10x_iwdg.o(.text)
    IWDG_GetFlagStatus                       0x0800f2b3   Thumb Code    20  stm32f10x_iwdg.o(.text)
    PWR_DeInit                               0x0800f2cd   Thumb Code    22  stm32f10x_pwr.o(.text)
    PWR_BackupAccessCmd                      0x0800f2e3   Thumb Code     6  stm32f10x_pwr.o(.text)
    PWR_PVDCmd                               0x0800f2e9   Thumb Code     6  stm32f10x_pwr.o(.text)
    PWR_PVDLevelConfig                       0x0800f2ef   Thumb Code    18  stm32f10x_pwr.o(.text)
    PWR_WakeUpPinCmd                         0x0800f301   Thumb Code     6  stm32f10x_pwr.o(.text)
    PWR_EnterSTOPMode                        0x0800f307   Thumb Code    54  stm32f10x_pwr.o(.text)
    PWR_EnterSTANDBYMode                     0x0800f33d   Thumb Code    42  stm32f10x_pwr.o(.text)
    PWR_GetFlagStatus                        0x0800f367   Thumb Code    20  stm32f10x_pwr.o(.text)
    PWR_ClearFlag                            0x0800f37b   Thumb Code    14  stm32f10x_pwr.o(.text)
    RCC_DeInit                               0x0800f399   Thumb Code    78  stm32f10x_rcc.o(.text)
    RCC_HSEConfig                            0x0800f3e7   Thumb Code    70  stm32f10x_rcc.o(.text)
    RCC_GetFlagStatus                        0x0800f42d   Thumb Code    56  stm32f10x_rcc.o(.text)
    RCC_WaitForHSEStartUp                    0x0800f465   Thumb Code    56  stm32f10x_rcc.o(.text)
    RCC_AdjustHSICalibrationValue            0x0800f49d   Thumb Code    20  stm32f10x_rcc.o(.text)
    RCC_HSICmd                               0x0800f4b1   Thumb Code     6  stm32f10x_rcc.o(.text)
    RCC_PLLConfig                            0x0800f4b7   Thumb Code    24  stm32f10x_rcc.o(.text)
    RCC_PLLCmd                               0x0800f4cf   Thumb Code     6  stm32f10x_rcc.o(.text)
    RCC_PREDIV1Config                        0x0800f4d5   Thumb Code    24  stm32f10x_rcc.o(.text)
    RCC_PREDIV2Config                        0x0800f4ed   Thumb Code    18  stm32f10x_rcc.o(.text)
    RCC_PLL2Config                           0x0800f4ff   Thumb Code    18  stm32f10x_rcc.o(.text)
    RCC_PLL2Cmd                              0x0800f511   Thumb Code     6  stm32f10x_rcc.o(.text)
    RCC_PLL3Config                           0x0800f517   Thumb Code    18  stm32f10x_rcc.o(.text)
    RCC_PLL3Cmd                              0x0800f529   Thumb Code     6  stm32f10x_rcc.o(.text)
    RCC_SYSCLKConfig                         0x0800f52f   Thumb Code    18  stm32f10x_rcc.o(.text)
    RCC_GetSYSCLKSource                      0x0800f541   Thumb Code    10  stm32f10x_rcc.o(.text)
    RCC_HCLKConfig                           0x0800f54b   Thumb Code    18  stm32f10x_rcc.o(.text)
    RCC_PCLK1Config                          0x0800f55d   Thumb Code    18  stm32f10x_rcc.o(.text)
    RCC_PCLK2Config                          0x0800f56f   Thumb Code    20  stm32f10x_rcc.o(.text)
    RCC_ITConfig                             0x0800f583   Thumb Code    26  stm32f10x_rcc.o(.text)
    RCC_OTGFSCLKConfig                       0x0800f59d   Thumb Code     6  stm32f10x_rcc.o(.text)
    RCC_ADCCLKConfig                         0x0800f5a3   Thumb Code    18  stm32f10x_rcc.o(.text)
    RCC_I2S2CLKConfig                        0x0800f5b5   Thumb Code     6  stm32f10x_rcc.o(.text)
    RCC_I2S3CLKConfig                        0x0800f5bb   Thumb Code     8  stm32f10x_rcc.o(.text)
    RCC_LSEConfig                            0x0800f5c3   Thumb Code    44  stm32f10x_rcc.o(.text)
    RCC_LSICmd                               0x0800f5ef   Thumb Code     6  stm32f10x_rcc.o(.text)
    RCC_RTCCLKConfig                         0x0800f5f5   Thumb Code    12  stm32f10x_rcc.o(.text)
    RCC_RTCCLKCmd                            0x0800f601   Thumb Code     8  stm32f10x_rcc.o(.text)
    RCC_GetClocksFreq                        0x0800f609   Thumb Code   432  stm32f10x_rcc.o(.text)
    RCC_AHBPeriphClockCmd                    0x0800f7b9   Thumb Code    26  stm32f10x_rcc.o(.text)
    RCC_APB2PeriphClockCmd                   0x0800f7d3   Thumb Code    26  stm32f10x_rcc.o(.text)
    RCC_APB1PeriphClockCmd                   0x0800f7ed   Thumb Code    26  stm32f10x_rcc.o(.text)
    RCC_AHBPeriphResetCmd                    0x0800f807   Thumb Code    26  stm32f10x_rcc.o(.text)
    RCC_APB2PeriphResetCmd                   0x0800f821   Thumb Code    26  stm32f10x_rcc.o(.text)
    RCC_APB1PeriphResetCmd                   0x0800f83b   Thumb Code    26  stm32f10x_rcc.o(.text)
    RCC_BackupResetCmd                       0x0800f855   Thumb Code     6  stm32f10x_rcc.o(.text)
    RCC_ClockSecuritySystemCmd               0x0800f85b   Thumb Code     6  stm32f10x_rcc.o(.text)
    RCC_MCOConfig                            0x0800f861   Thumb Code     6  stm32f10x_rcc.o(.text)
    RCC_ClearFlag                            0x0800f867   Thumb Code    14  stm32f10x_rcc.o(.text)
    RCC_GetITStatus                          0x0800f875   Thumb Code    20  stm32f10x_rcc.o(.text)
    RCC_ClearITPendingBit                    0x0800f889   Thumb Code     6  stm32f10x_rcc.o(.text)
    SPI_I2S_DeInit                           0x0800f89d   Thumb Code    76  stm32f10x_spi.o(.text)
    SPI_Init                                 0x0800f8e9   Thumb Code    60  stm32f10x_spi.o(.text)
    I2S_Init                                 0x0800f925   Thumb Code   292  stm32f10x_spi.o(.text)
    SPI_StructInit                           0x0800fa49   Thumb Code    24  stm32f10x_spi.o(.text)
    I2S_StructInit                           0x0800fa61   Thumb Code    20  stm32f10x_spi.o(.text)
    SPI_Cmd                                  0x0800fa75   Thumb Code    24  stm32f10x_spi.o(.text)
    I2S_Cmd                                  0x0800fa8d   Thumb Code    24  stm32f10x_spi.o(.text)
    SPI_I2S_ITConfig                         0x0800faa5   Thumb Code    32  stm32f10x_spi.o(.text)
    SPI_I2S_DMACmd                           0x0800fac5   Thumb Code    18  stm32f10x_spi.o(.text)
    SPI_I2S_SendData                         0x0800fad7   Thumb Code     4  stm32f10x_spi.o(.text)
    SPI_I2S_ReceiveData                      0x0800fadb   Thumb Code     6  stm32f10x_spi.o(.text)
    SPI_NSSInternalSoftwareConfig            0x0800fae1   Thumb Code    30  stm32f10x_spi.o(.text)
    SPI_SSOutputCmd                          0x0800faff   Thumb Code    24  stm32f10x_spi.o(.text)
    SPI_DataSizeConfig                       0x0800fb17   Thumb Code    18  stm32f10x_spi.o(.text)
    SPI_TransmitCRC                          0x0800fb29   Thumb Code    10  stm32f10x_spi.o(.text)
    SPI_CalculateCRC                         0x0800fb33   Thumb Code    24  stm32f10x_spi.o(.text)
    SPI_GetCRC                               0x0800fb4b   Thumb Code    16  stm32f10x_spi.o(.text)
    SPI_GetCRCPolynomial                     0x0800fb5b   Thumb Code     6  stm32f10x_spi.o(.text)
    SPI_BiDirectionalLineConfig              0x0800fb61   Thumb Code    28  stm32f10x_spi.o(.text)
    SPI_I2S_GetFlagStatus                    0x0800fb7d   Thumb Code    18  stm32f10x_spi.o(.text)
    SPI_I2S_ClearFlag                        0x0800fb8f   Thumb Code     6  stm32f10x_spi.o(.text)
    SPI_I2S_GetITStatus                      0x0800fb95   Thumb Code    52  stm32f10x_spi.o(.text)
    SPI_I2S_ClearITPendingBit                0x0800fbc9   Thumb Code    20  stm32f10x_spi.o(.text)
    TIM_DeInit                               0x0800fbf1   Thumb Code   424  stm32f10x_tim.o(.text)
    TIM_TimeBaseInit                         0x0800fd99   Thumb Code   122  stm32f10x_tim.o(.text)
    TIM_OC1Init                              0x0800fe13   Thumb Code   132  stm32f10x_tim.o(.text)
    TIM_OC2Init                              0x0800fe97   Thumb Code   154  stm32f10x_tim.o(.text)
    TIM_OC3Init                              0x0800ff31   Thumb Code   150  stm32f10x_tim.o(.text)
    TIM_OC4Init                              0x0800ffc7   Thumb Code   182  stm32f10x_tim.o(.text)
    TIM_SetIC4Prescaler                      0x0801007d   Thumb Code    26  stm32f10x_tim.o(.text)
    TIM_SetIC3Prescaler                      0x08010119   Thumb Code    18  stm32f10x_tim.o(.text)
    TIM_SetIC2Prescaler                      0x080101a5   Thumb Code    26  stm32f10x_tim.o(.text)
    TIM_SetIC1Prescaler                      0x08010241   Thumb Code    18  stm32f10x_tim.o(.text)
    TIM_ICInit                               0x080102bf   Thumb Code   150  stm32f10x_tim.o(.text)
    TIM_PWMIConfig                           0x08010355   Thumb Code   124  stm32f10x_tim.o(.text)
    TIM_BDTRConfig                           0x080103d1   Thumb Code    32  stm32f10x_tim.o(.text)
    TIM_TimeBaseStructInit                   0x080103f1   Thumb Code    18  stm32f10x_tim.o(.text)
    TIM_OCStructInit                         0x08010403   Thumb Code    20  stm32f10x_tim.o(.text)
    TIM_ICStructInit                         0x08010417   Thumb Code    18  stm32f10x_tim.o(.text)
    TIM_BDTRStructInit                       0x08010429   Thumb Code    40  stm32f10x_tim.o(.text)
    TIM_Cmd                                  0x08010451   Thumb Code    24  stm32f10x_tim.o(.text)
    TIM_CtrlPWMOutputs                       0x08010469   Thumb Code    30  stm32f10x_tim.o(.text)
    TIM_ITConfig                             0x08010487   Thumb Code    18  stm32f10x_tim.o(.text)
    TIM_GenerateEvent                        0x08010499   Thumb Code     4  stm32f10x_tim.o(.text)
    TIM_DMAConfig                            0x0801049d   Thumb Code    10  stm32f10x_tim.o(.text)
    TIM_DMACmd                               0x080104a7   Thumb Code    18  stm32f10x_tim.o(.text)
    TIM_InternalClockConfig                  0x080104b9   Thumb Code    12  stm32f10x_tim.o(.text)
    TIM_SelectInputTrigger                   0x080104c5   Thumb Code    18  stm32f10x_tim.o(.text)
    TIM_ITRxExternalClockConfig              0x080104d7   Thumb Code    24  stm32f10x_tim.o(.text)
    TIM_TIxExternalClockConfig               0x080104ef   Thumb Code    62  stm32f10x_tim.o(.text)
    TIM_ETRConfig                            0x0801052d   Thumb Code    28  stm32f10x_tim.o(.text)
    TIM_ETRClockMode1Config                  0x08010549   Thumb Code    54  stm32f10x_tim.o(.text)
    TIM_ETRClockMode2Config                  0x0801057f   Thumb Code    32  stm32f10x_tim.o(.text)
    TIM_PrescalerConfig                      0x0801059f   Thumb Code     6  stm32f10x_tim.o(.text)
    TIM_CounterModeConfig                    0x080105a5   Thumb Code    18  stm32f10x_tim.o(.text)
    TIM_EncoderInterfaceConfig               0x080105b7   Thumb Code    66  stm32f10x_tim.o(.text)
    TIM_ForcedOC1Config                      0x080105f9   Thumb Code    18  stm32f10x_tim.o(.text)
    TIM_ForcedOC2Config                      0x0801060b   Thumb Code    26  stm32f10x_tim.o(.text)
    TIM_ForcedOC3Config                      0x08010625   Thumb Code    18  stm32f10x_tim.o(.text)
    TIM_ForcedOC4Config                      0x08010637   Thumb Code    26  stm32f10x_tim.o(.text)
    TIM_ARRPreloadConfig                     0x08010651   Thumb Code    24  stm32f10x_tim.o(.text)
    TIM_SelectCOM                            0x08010669   Thumb Code    24  stm32f10x_tim.o(.text)
    TIM_SelectCCDMA                          0x08010681   Thumb Code    24  stm32f10x_tim.o(.text)
    TIM_CCPreloadControl                     0x08010699   Thumb Code    24  stm32f10x_tim.o(.text)
    TIM_OC1PreloadConfig                     0x080106b1   Thumb Code    18  stm32f10x_tim.o(.text)
    TIM_OC2PreloadConfig                     0x080106c3   Thumb Code    26  stm32f10x_tim.o(.text)
    TIM_OC3PreloadConfig                     0x080106dd   Thumb Code    18  stm32f10x_tim.o(.text)
    TIM_OC4PreloadConfig                     0x080106ef   Thumb Code    26  stm32f10x_tim.o(.text)
    TIM_OC1FastConfig                        0x08010709   Thumb Code    18  stm32f10x_tim.o(.text)
    TIM_OC2FastConfig                        0x0801071b   Thumb Code    26  stm32f10x_tim.o(.text)
    TIM_OC3FastConfig                        0x08010735   Thumb Code    18  stm32f10x_tim.o(.text)
    TIM_OC4FastConfig                        0x08010747   Thumb Code    26  stm32f10x_tim.o(.text)
    TIM_ClearOC1Ref                          0x08010761   Thumb Code    18  stm32f10x_tim.o(.text)
    TIM_ClearOC2Ref                          0x08010773   Thumb Code    24  stm32f10x_tim.o(.text)
    TIM_ClearOC3Ref                          0x0801078b   Thumb Code    18  stm32f10x_tim.o(.text)
    TIM_ClearOC4Ref                          0x0801079d   Thumb Code    24  stm32f10x_tim.o(.text)
    TIM_OC1PolarityConfig                    0x080107b5   Thumb Code    18  stm32f10x_tim.o(.text)
    TIM_OC1NPolarityConfig                   0x080107c7   Thumb Code    18  stm32f10x_tim.o(.text)
    TIM_OC2PolarityConfig                    0x080107d9   Thumb Code    26  stm32f10x_tim.o(.text)
    TIM_OC2NPolarityConfig                   0x080107f3   Thumb Code    26  stm32f10x_tim.o(.text)
    TIM_OC3PolarityConfig                    0x0801080d   Thumb Code    26  stm32f10x_tim.o(.text)
    TIM_OC3NPolarityConfig                   0x08010827   Thumb Code    26  stm32f10x_tim.o(.text)
    TIM_OC4PolarityConfig                    0x08010841   Thumb Code    26  stm32f10x_tim.o(.text)
    TIM_CCxCmd                               0x0801085b   Thumb Code    30  stm32f10x_tim.o(.text)
    TIM_CCxNCmd                              0x08010879   Thumb Code    30  stm32f10x_tim.o(.text)
    TIM_SelectOCxM                           0x08010897   Thumb Code    82  stm32f10x_tim.o(.text)
    TIM_UpdateDisableConfig                  0x080108e9   Thumb Code    24  stm32f10x_tim.o(.text)
    TIM_UpdateRequestConfig                  0x08010901   Thumb Code    24  stm32f10x_tim.o(.text)
    TIM_SelectHallSensor                     0x08010919   Thumb Code    24  stm32f10x_tim.o(.text)
    TIM_SelectOnePulseMode                   0x08010931   Thumb Code    18  stm32f10x_tim.o(.text)
    TIM_SelectOutputTrigger                  0x08010943   Thumb Code    18  stm32f10x_tim.o(.text)
    TIM_SelectSlaveMode                      0x08010955   Thumb Code    18  stm32f10x_tim.o(.text)
    TIM_SelectMasterSlaveMode                0x08010967   Thumb Code    18  stm32f10x_tim.o(.text)
    TIM_SetCounter                           0x08010979   Thumb Code     4  stm32f10x_tim.o(.text)
    TIM_SetAutoreload                        0x0801097d   Thumb Code     4  stm32f10x_tim.o(.text)
    TIM_SetCompare1                          0x08010981   Thumb Code     4  stm32f10x_tim.o(.text)
    TIM_SetCompare2                          0x08010985   Thumb Code     4  stm32f10x_tim.o(.text)
    TIM_SetCompare3                          0x08010989   Thumb Code     4  stm32f10x_tim.o(.text)
    TIM_SetCompare4                          0x0801098d   Thumb Code     6  stm32f10x_tim.o(.text)
    TIM_SetClockDivision                     0x08010993   Thumb Code    18  stm32f10x_tim.o(.text)
    TIM_GetCapture1                          0x080109a5   Thumb Code     6  stm32f10x_tim.o(.text)
    TIM_GetCapture2                          0x080109ab   Thumb Code     6  stm32f10x_tim.o(.text)
    TIM_GetCapture3                          0x080109b1   Thumb Code     6  stm32f10x_tim.o(.text)
    TIM_GetCapture4                          0x080109b7   Thumb Code     8  stm32f10x_tim.o(.text)
    TIM_GetCounter                           0x080109bf   Thumb Code     6  stm32f10x_tim.o(.text)
    TIM_GetPrescaler                         0x080109c5   Thumb Code     6  stm32f10x_tim.o(.text)
    TIM_GetFlagStatus                        0x080109cb   Thumb Code    18  stm32f10x_tim.o(.text)
    TIM_ClearFlag                            0x080109dd   Thumb Code     6  stm32f10x_tim.o(.text)
    TIM_GetITStatus                          0x080109e3   Thumb Code    34  stm32f10x_tim.o(.text)
    TIM_ClearITPendingBit                    0x08010a05   Thumb Code     6  stm32f10x_tim.o(.text)
    USART_DeInit                             0x08010a0d   Thumb Code   134  stm32f10x_usart.o(.text)
    USART_Init                               0x08010a93   Thumb Code   210  stm32f10x_usart.o(.text)
    USART_StructInit                         0x08010b65   Thumb Code    24  stm32f10x_usart.o(.text)
    USART_ClockInit                          0x08010b7d   Thumb Code    34  stm32f10x_usart.o(.text)
    USART_ClockStructInit                    0x08010b9f   Thumb Code    12  stm32f10x_usart.o(.text)
    USART_Cmd                                0x08010bab   Thumb Code    24  stm32f10x_usart.o(.text)
    USART_ITConfig                           0x08010bc3   Thumb Code    74  stm32f10x_usart.o(.text)
    USART_DMACmd                             0x08010c0d   Thumb Code    18  stm32f10x_usart.o(.text)
    USART_SetAddress                         0x08010c1f   Thumb Code    18  stm32f10x_usart.o(.text)
    USART_WakeUpConfig                       0x08010c31   Thumb Code    18  stm32f10x_usart.o(.text)
    USART_ReceiverWakeUpCmd                  0x08010c43   Thumb Code    24  stm32f10x_usart.o(.text)
    USART_LINBreakDetectLengthConfig         0x08010c5b   Thumb Code    18  stm32f10x_usart.o(.text)
    USART_LINCmd                             0x08010c6d   Thumb Code    24  stm32f10x_usart.o(.text)
    USART_SendData                           0x08010c85   Thumb Code     8  stm32f10x_usart.o(.text)
    USART_ReceiveData                        0x08010c8d   Thumb Code    10  stm32f10x_usart.o(.text)
    USART_SendBreak                          0x08010c97   Thumb Code    10  stm32f10x_usart.o(.text)
    USART_SetGuardTime                       0x08010ca1   Thumb Code    16  stm32f10x_usart.o(.text)
    USART_SetPrescaler                       0x08010cb1   Thumb Code    16  stm32f10x_usart.o(.text)
    USART_SmartCardCmd                       0x08010cc1   Thumb Code    24  stm32f10x_usart.o(.text)
    USART_SmartCardNACKCmd                   0x08010cd9   Thumb Code    24  stm32f10x_usart.o(.text)
    USART_HalfDuplexCmd                      0x08010cf1   Thumb Code    24  stm32f10x_usart.o(.text)
    USART_OverSampling8Cmd                   0x08010d09   Thumb Code    22  stm32f10x_usart.o(.text)
    USART_OneBitMethodCmd                    0x08010d1f   Thumb Code    24  stm32f10x_usart.o(.text)
    USART_IrDAConfig                         0x08010d37   Thumb Code    18  stm32f10x_usart.o(.text)
    USART_IrDACmd                            0x08010d49   Thumb Code    24  stm32f10x_usart.o(.text)
    USART_GetFlagStatus                      0x08010d61   Thumb Code    26  stm32f10x_usart.o(.text)
    USART_ClearFlag                          0x08010d7b   Thumb Code    18  stm32f10x_usart.o(.text)
    USART_GetITStatus                        0x08010d8d   Thumb Code    84  stm32f10x_usart.o(.text)
    USART_ClearITPendingBit                  0x08010de1   Thumb Code    52  stm32f10x_usart.o(.text)
    OS_StrLen                                0x08010e15   Thumb Code    20  os_core.o(.text)
    OSEventNameGet                           0x08010e29   Thumb Code    98  os_core.o(.text)
    OSEventNameSet                           0x08010e8b   Thumb Code    84  os_core.o(.text)
    OS_EventTaskRemoveMulti                  0x08010edf   Thumb Code    60  os_core.o(.text)
    OS_Sched                                 0x08010f35   Thumb Code    88  os_core.o(.text)
    OS_EventTaskWaitMulti                    0x08010f8d   Thumb Code   136  os_core.o(.text)
    OSEventPendMulti                         0x08011015   Thumb Code   710  os_core.o(.text)
    OS_TaskStatStkChk                        0x080112db   Thumb Code    54  os_core.o(.text)
    OS_TaskStat                              0x08011311   Thumb Code   116  os_core.o(.text)
    OS_TaskIdle                              0x080113b9   Thumb Code    34  os_core.o(.text)
    OS_MemClr                                0x0801140f   Thumb Code    18  os_core.o(.text)
    OSInit                                   0x08011537   Thumb Code    48  os_core.o(.text)
    OSIntEnter                               0x08011567   Thumb Code    28  os_core.o(.text)
    OSIntExit                                0x08011583   Thumb Code   112  os_core.o(.text)
    OSSchedLock                              0x080115f3   Thumb Code    50  os_core.o(.text)
    OSSchedUnlock                            0x08011625   Thumb Code   234  os_core.o(.text)
    OSStart                                  0x0801170f   Thumb Code    48  os_core.o(.text)
    OSStatInit                               0x0801173f   Thumb Code    62  os_core.o(.text)
    OSTimeTick                               0x0801177d   Thumb Code   218  os_core.o(.text)
    OSVersion                                0x08011857   Thumb Code     6  os_core.o(.text)
    OS_Dummy                                 0x0801185d   Thumb Code     2  os_core.o(.text)
    OS_EventTaskRemove                       0x0801185f   Thumb Code    42  os_core.o(.text)
    OS_EventTaskRdy                          0x08011889   Thumb Code   132  os_core.o(.text)
    OS_EventTaskWait                         0x0801190d   Thumb Code   112  os_core.o(.text)
    OS_EventWaitListInit                     0x0801197d   Thumb Code    28  os_core.o(.text)
    OS_MemCopy                               0x08011999   Thumb Code    20  os_core.o(.text)
    OS_TCBInit                               0x080119ad   Thumb Code   296  os_core.o(.text)
    OSInitHookBegin                          0x08011b19   Thumb Code     2  os_cpu_c.o(.text)
    OSInitHookEnd                            0x08011b1b   Thumb Code     2  os_cpu_c.o(.text)
    OSTaskCreateHook                         0x08011b1d   Thumb Code     2  os_cpu_c.o(.text)
    OSTaskDelHook                            0x08011b1f   Thumb Code     2  os_cpu_c.o(.text)
    OSTaskIdleHook                           0x08011b21   Thumb Code     2  os_cpu_c.o(.text)
    OSTaskStatHook                           0x08011b23   Thumb Code     2  os_cpu_c.o(.text)
    OSTaskStkInit                            0x08011b25   Thumb Code   154  os_cpu_c.o(.text)
    OSTaskSwHook                             0x08011bbf   Thumb Code     2  os_cpu_c.o(.text)
    OSTCBInitHook                            0x08011bc1   Thumb Code     2  os_cpu_c.o(.text)
    OSTimeTickHook                           0x08011bc3   Thumb Code     2  os_cpu_c.o(.text)
    OS_CPU_SysTickInit                       0x08011bc5   Thumb Code    92  os_cpu_c.o(.text)
    OSFlagAccept                             0x08011c2d   Thumb Code   252  os_flag.o(.text)
    OSFlagCreate                             0x08011d29   Thumb Code    86  os_flag.o(.text)
    OS_FlagUnlink                            0x08011d7f   Thumb Code    36  os_flag.o(.text)
    OSFlagDel                                0x08011e03   Thumb Code   214  os_flag.o(.text)
    OSFlagNameGet                            0x08011ed9   Thumb Code    80  os_flag.o(.text)
    OSFlagNameSet                            0x08011f29   Thumb Code    66  os_flag.o(.text)
    OSFlagPend                               0x08012003   Thumb Code   614  os_flag.o(.text)
    OSFlagPendGetFlagsRdy                    0x08012269   Thumb Code    26  os_flag.o(.text)
    OSFlagPost                               0x08012283   Thumb Code   312  os_flag.o(.text)
    OSFlagQuery                              0x080123bb   Thumb Code    48  os_flag.o(.text)
    OS_FlagInit                              0x080123eb   Thumb Code    78  os_flag.o(.text)
    OSMboxAccept                             0x08012445   Thumb Code    38  os_mbox.o(.text)
    OSMboxCreate                             0x0801246b   Thumb Code    72  os_mbox.o(.text)
    OSMboxDel                                0x080124b3   Thumb Code   210  os_mbox.o(.text)
    OSMboxPend                               0x08012585   Thumb Code   252  os_mbox.o(.text)
    OSMboxPendAbort                          0x08012681   Thumb Code   128  os_mbox.o(.text)
    OSMboxPost                               0x08012701   Thumb Code    80  os_mbox.o(.text)
    OSMboxPostOpt                            0x08012751   Thumb Code   120  os_mbox.o(.text)
    OSMboxQuery                              0x080127c9   Thumb Code    76  os_mbox.o(.text)
    OSMemCreate                              0x08012829   Thumb Code   118  os_mem.o(.text)
    OSMemGet                                 0x0801289f   Thumb Code    62  os_mem.o(.text)
    OSMemNameGet                             0x080128dd   Thumb Code    60  os_mem.o(.text)
    OSMemNameSet                             0x08012919   Thumb Code    48  os_mem.o(.text)
    OSMemPut                                 0x08012949   Thumb Code    54  os_mem.o(.text)
    OSMemQuery                               0x0801297f   Thumb Code    52  os_mem.o(.text)
    OS_MemInit                               0x080129b3   Thumb Code    74  os_mem.o(.text)
    OSQAccept                                0x08012a0d   Thumb Code    88  os_q.o(.text)
    OSQCreate                                0x08012a65   Thumb Code   144  os_q.o(.text)
    OSQDel                                   0x08012af5   Thumb Code   244  os_q.o(.text)
    OSQFlush                                 0x08012be9   Thumb Code    36  os_q.o(.text)
    OSQPend                                  0x08012c0d   Thumb Code   278  os_q.o(.text)
    OSQPendAbort                             0x08012d23   Thumb Code   128  os_q.o(.text)
    OSQPost                                  0x08012da3   Thumb Code   114  os_q.o(.text)
    OSQPostFront                             0x08012e15   Thumb Code   142  os_q.o(.text)
    OSQPostOpt                               0x08012ea3   Thumb Code   182  os_q.o(.text)
    OSQQuery                                 0x08012f59   Thumb Code    98  os_q.o(.text)
    OS_QInit                                 0x08012fbb   Thumb Code    72  os_q.o(.text)
    OSSemAccept                              0x0801300d   Thumb Code    42  os_sem.o(.text)
    OSSemCreate                              0x08013037   Thumb Code    72  os_sem.o(.text)
    OSSemDel                                 0x0801307f   Thumb Code   210  os_sem.o(.text)
    OSSemPend                                0x08013151   Thumb Code   228  os_sem.o(.text)
    OSSemPendAbort                           0x08013235   Thumb Code   128  os_sem.o(.text)
    OSSemPost                                0x080132b5   Thumb Code    88  os_sem.o(.text)
    OSSemQuery                               0x0801330d   Thumb Code    76  os_sem.o(.text)
    OSSemSet                                 0x08013359   Thumb Code    66  os_sem.o(.text)
    OSTaskChangePrio                         0x080133b1   Thumb Code   396  os_task.o(.text)
    OSTaskCreate                             0x0801353d   Thumb Code   148  os_task.o(.text)
    OS_TaskStkClr                            0x080135d1   Thumb Code    26  os_task.o(.text)
    OSTaskCreateExt                          0x080135eb   Thumb Code   170  os_task.o(.text)
    OSTaskDel                                0x08013695   Thumb Code   352  os_task.o(.text)
    OSTaskDelReq                             0x080137f5   Thumb Code   100  os_task.o(.text)
    OSTaskNameGet                            0x08013859   Thumb Code   114  os_task.o(.text)
    OSTaskNameSet                            0x080138cb   Thumb Code    98  os_task.o(.text)
    OSTaskResume                             0x0801392d   Thumb Code   160  os_task.o(.text)
    OSTaskStkChk                             0x080139cd   Thumb Code   132  os_task.o(.text)
    OSTaskSuspend                            0x08013a51   Thumb Code   152  os_task.o(.text)
    OSTaskQuery                              0x08013ae9   Thumb Code    82  os_task.o(.text)
    OSTaskRegGet                             0x08013b3b   Thumb Code    60  os_task.o(.text)
    OSTaskRegSet                             0x08013b77   Thumb Code    62  os_task.o(.text)
    OS_TaskReturn                            0x08013bb5   Thumb Code    10  os_task.o(.text)
    OSTimeDly                                0x08013bd9   Thumb Code   100  os_time.o(.text)
    OSTimeDlyHMSM                            0x08013c3d   Thumb Code    86  os_time.o(.text)
    OSTimeDlyResume                          0x08013c93   Thumb Code   176  os_time.o(.text)
    OSTimeGet                                0x08013d43   Thumb Code    24  os_time.o(.text)
    OSTimeSet                                0x08013d5b   Thumb Code    24  os_time.o(.text)
    OS_CPU_SR_Save                           0x08013d91   Thumb Code     0  os_cpu_a.o(.text)
    OS_CPU_SR_Restore                        0x08013d99   Thumb Code     0  os_cpu_a.o(.text)
    OSStartHighRdy                           0x08013d9f   Thumb Code     0  os_cpu_a.o(.text)
    OSCtxSw                                  0x08013dbf   Thumb Code     0  os_cpu_a.o(.text)
    OSIntCtxSw                               0x08013dc9   Thumb Code     0  os_cpu_a.o(.text)
    PendSV_Handler                           0x08013dd3   Thumb Code     0  os_cpu_a.o(.text)
    CPU_IntDis                               0x08013e15   Thumb Code     0  os_cpu_a.o(.text)
    CPU_IntEn                                0x08013e19   Thumb Code     0  os_cpu_a.o(.text)
    Set_MAC_Address                          0x08013e3d   Thumb Code    40  ethernetif.o(.text)
    ETH_TxPkt_ChainMode                      0x08013ef3   Thumb Code    94  ethernetif.o(.text)
    ETH_GetCurrentTxBuffer                   0x08013f51   Thumb Code     8  ethernetif.o(.text)
    ETH_RxPkt_ChainMode                      0x08013f8d   Thumb Code   148  ethernetif.o(.text)
    ethernetif_input                         0x0801408f   Thumb Code    44  ethernetif.o(.text)
    ethernetif_init                          0x080140bb   Thumb Code    82  ethernetif.o(.text)
    ETH_Process_ISR                          0x0801410d   Thumb Code    26  ethernetif.o(.text)
    sys_mbox_new                             0x080141b1   Thumb Code   132  sys_arch.o(.text)
    sys_mbox_free                            0x08014235   Thumb Code   114  sys_arch.o(.text)
    sys_mbox_post                            0x080142a7   Thumb Code    28  sys_arch.o(.text)
    sys_mbox_trypost                         0x080142c3   Thumb Code    32  sys_arch.o(.text)
    sys_arch_mbox_fetch                      0x080142e3   Thumb Code   158  sys_arch.o(.text)
    sys_arch_mbox_tryfetch                   0x08014381   Thumb Code    18  sys_arch.o(.text)
    sys_mbox_valid                           0x08014393   Thumb Code    56  sys_arch.o(.text)
    sys_mbox_set_invalid                     0x080143cb   Thumb Code     6  sys_arch.o(.text)
    sys_sem_new                              0x080143d1   Thumb Code    62  sys_arch.o(.text)
    sys_arch_sem_wait                        0x0801440f   Thumb Code   100  sys_arch.o(.text)
    sys_sem_signal                           0x08014473   Thumb Code    12  sys_arch.o(.text)
    sys_sem_free                             0x0801447f   Thumb Code    54  sys_arch.o(.text)
    sys_sem_valid                            0x080144b5   Thumb Code    22  sys_arch.o(.text)
    sys_sem_set_invalid                      0x080144cb   Thumb Code     6  sys_arch.o(.text)
    sys_init                                 0x080144d1   Thumb Code    72  sys_arch.o(.text)
    sys_thread_new                           0x08014519   Thumb Code   344  sys_arch.o(.text)
    sys_now                                  0x08014671   Thumb Code    28  sys_arch.o(.text)
    netconn_new_with_proto_and_callback      0x0801468d   Thumb Code   194  api_lib.o(.text)
    netconn_delete                           0x0801474f   Thumb Code    36  api_lib.o(.text)
    netconn_getaddr                          0x08014773   Thumb Code   160  api_lib.o(.text)
    netconn_bind                             0x08014813   Thumb Code    98  api_lib.o(.text)
    netconn_connect                          0x08014875   Thumb Code    98  api_lib.o(.text)
    netconn_disconnect                       0x080148d7   Thumb Code    84  api_lib.o(.text)
    netconn_listen_with_backlog              0x0801492b   Thumb Code    86  api_lib.o(.text)
    netconn_accept                           0x08014981   Thumb Code   798  api_lib.o(.text)
    netconn_recv_tcp_pbuf                    0x08014e0f   Thumb Code    56  api_lib.o(.text)
    netconn_recv                             0x08014e47   Thumb Code   268  api_lib.o(.text)
    netconn_recved                           0x08014f53   Thumb Code    46  api_lib.o(.text)
    netconn_send                             0x08014f81   Thumb Code    94  api_lib.o(.text)
    netconn_sendto                           0x08014fdf   Thumb Code    44  api_lib.o(.text)
    netconn_write_partly                     0x0801500b   Thumb Code   440  api_lib.o(.text)
    netconn_close                            0x08015223   Thumb Code    14  api_lib.o(.text)
    netconn_shutdown                         0x08015231   Thumb Code    36  api_lib.o(.text)
    netconn_free                             0x08015c47   Thumb Code   330  api_msg.o(.text)
    netconn_alloc                            0x08015d91   Thumb Code   172  api_msg.o(.text)
    do_newconn                               0x08015f97   Thumb Code    32  api_msg.o(.text)
    do_delconn                               0x0801607f   Thumb Code   638  api_msg.o(.text)
    do_bind                                  0x080162fd   Thumb Code   116  api_msg.o(.text)
    do_connect                               0x08016443   Thumb Code   230  api_msg.o(.text)
    do_disconnect                            0x08016529   Thumb Code    46  api_msg.o(.text)
    do_listen                                0x08016557   Thumb Code   390  api_msg.o(.text)
    do_send                                  0x080166dd   Thumb Code   166  api_msg.o(.text)
    do_recv                                  0x08016783   Thumb Code    72  api_msg.o(.text)
    do_write                                 0x080167cb   Thumb Code   166  api_msg.o(.text)
    do_getaddr                               0x08016871   Thumb Code   198  api_msg.o(.text)
    do_close                                 0x08016937   Thumb Code   184  api_msg.o(.text)
    netbuf_new                               0x08016a21   Thumb Code    30  netbuf.o(.text)
    netbuf_delete                            0x08016a3f   Thumb Code    32  netbuf.o(.text)
    netbuf_alloc                             0x08016a5f   Thumb Code   102  netbuf.o(.text)
    netbuf_free                              0x08016ac5   Thumb Code    48  netbuf.o(.text)
    netbuf_ref                               0x08016af5   Thumb Code    90  netbuf.o(.text)
    netbuf_chain                             0x08016b4f   Thumb Code    78  netbuf.o(.text)
    netbuf_data                              0x08016b9d   Thumb Code   122  netbuf.o(.text)
    netbuf_next                              0x08016c17   Thumb Code    64  netbuf.o(.text)
    netbuf_first                             0x08016c57   Thumb Code    36  netbuf.o(.text)
    lwip_socket_init                         0x08016dcd   Thumb Code     2  sockets.o(.text)
    lwip_accept                              0x08017071   Thumb Code   628  sockets.o(.text)
    lwip_bind                                0x080172e5   Thumb Code   164  sockets.o(.text)
    lwip_close                               0x08017389   Thumb Code    90  sockets.o(.text)
    lwip_connect                             0x080173e3   Thumb Code   180  sockets.o(.text)
    lwip_listen                              0x08017497   Thumb Code   128  sockets.o(.text)
    lwip_recvfrom                            0x08017517   Thumb Code   780  sockets.o(.text)
    lwip_read                                0x08017823   Thumb Code    28  sockets.o(.text)
    lwip_recv                                0x0801783f   Thumb Code    34  sockets.o(.text)
    lwip_sendto                              0x08017861   Thumb Code   264  sockets.o(.text)
    lwip_send                                0x08017969   Thumb Code   148  sockets.o(.text)
    lwip_socket                              0x080179fd   Thumb Code   142  sockets.o(.text)
    lwip_write                               0x08017a8b   Thumb Code    22  sockets.o(.text)
    lwip_select                              0x08017c89   Thumb Code   844  sockets.o(.text)
    lwip_shutdown                            0x08017fd5   Thumb Code   298  sockets.o(.text)
    lwip_getpeername                         0x08018175   Thumb Code    22  sockets.o(.text)
    lwip_getsockname                         0x0801818b   Thumb Code    22  sockets.o(.text)
    lwip_getsockopt                          0x0801836b   Thumb Code   332  sockets.o(.text)
    lwip_setsockopt                          0x0801868d   Thumb Code   298  sockets.o(.text)
    lwip_ioctl                               0x080187b7   Thumb Code   108  sockets.o(.text)
    lwip_fcntl                               0x08018823   Thumb Code   122  sockets.o(.text)
    tcpip_input                              0x08018973   Thumb Code    72  tcpip.o(.text)
    tcpip_callback_with_block                0x080189bb   Thumb Code    90  tcpip.o(.text)
    tcpip_timeout                            0x08018a15   Thumb Code    64  tcpip.o(.text)
    tcpip_untimeout                          0x08018a55   Thumb Code    56  tcpip.o(.text)
    tcpip_apimsg                             0x08018a8d   Thumb Code    56  tcpip.o(.text)
    tcpip_callbackmsg_new                    0x08018ac5   Thumb Code    32  tcpip.o(.text)
    tcpip_callbackmsg_delete                 0x08018ae5   Thumb Code    14  tcpip.o(.text)
    tcpip_trycallback                        0x08018af3   Thumb Code    28  tcpip.o(.text)
    tcpip_init                               0x08018b0f   Thumb Code    70  tcpip.o(.text)
    pbuf_free_callback                       0x08018b63   Thumb Code    16  tcpip.o(.text)
    mem_free_callback                        0x08018b73   Thumb Code    16  tcpip.o(.text)
    icmp_input                               0x08018c39   Thumb Code   474  icmp.o(.text)
    icmp_dest_unreach                        0x08018e9b   Thumb Code    18  icmp.o(.text)
    icmp_time_exceeded                       0x08018ead   Thumb Code    18  icmp.o(.text)
    inet_chksum_pseudo                       0x0801908f   Thumb Code   162  inet_chksum.o(.text)
    inet_chksum_pseudo_partial               0x08019131   Thumb Code   210  inet_chksum.o(.text)
    inet_chksum                              0x08019203   Thumb Code    20  inet_chksum.o(.text)
    inet_chksum_pbuf                         0x08019217   Thumb Code    86  inet_chksum.o(.text)
    ip_route                                 0x080192cd   Thumb Code    76  ip.o(.text)
    ip_input                                 0x08019319   Thumb Code   376  ip.o(.text)
    ip_output_if                             0x08019491   Thumb Code   240  ip.o(.text)
    ip_output                                0x08019581   Thumb Code    80  ip.o(.text)
    ip4_addr_isbroadcast                     0x08019675   Thumb Code    78  ip_addr.o(.text)
    ip4_addr_netmask_valid                   0x080196c3   Thumb Code    52  ip_addr.o(.text)
    ipaddr_aton                              0x080196f7   Thumb Code   364  ip_addr.o(.text)
    ipaddr_addr                              0x08019863   Thumb Code    24  ip_addr.o(.text)
    ipaddr_ntoa_r                            0x0801987b   Thumb Code   168  ip_addr.o(.text)
    ipaddr_ntoa                              0x08019923   Thumb Code    16  ip_addr.o(.text)
    ip_reass_tmr                             0x08019ae3   Thumb Code    48  ip_frag.o(.text)
    ip_reass                                 0x08019f15   Thumb Code   386  ip_frag.o(.text)
    ip_frag                                  0x0801a11d   Thumb Code   618  ip_frag.o(.text)
    lwip_init                                0x0801a387   Thumb Code    36  init.o(.text)
    mem_init                                 0x0801a487   Thumb Code   108  mem.o(.text)
    mem_free                                 0x0801a4f3   Thumb Code   174  mem.o(.text)
    mem_trim                                 0x0801a5a1   Thumb Code   334  mem.o(.text)
    mem_malloc                               0x0801a6ef   Thumb Code   784  mem.o(.text)
    mem_calloc                               0x0801a9ff   Thumb Code    34  mem.o(.text)
    memp_get_memorysize                      0x0801aad1   Thumb Code     8  memp.o(.text)
    memp_init                                0x0801aad9   Thumb Code    82  memp.o(.text)
    memp_malloc                              0x0801ab2b   Thumb Code    98  memp.o(.text)
    memp_free                                0x0801ab8d   Thumb Code    74  memp.o(.text)
    netif_init                               0x0801ac95   Thumb Code     2  netif.o(.text)
    netif_set_gw                             0x0801ac97   Thumb Code    12  netif.o(.text)
    netif_set_netmask                        0x0801aca3   Thumb Code    12  netif.o(.text)
    netif_set_ipaddr                         0x0801acaf   Thumb Code   110  netif.o(.text)
    netif_set_addr                           0x0801ad1d   Thumb Code    40  netif.o(.text)
    netif_add                                0x0801ad45   Thumb Code   118  netif.o(.text)
    netif_set_default                        0x0801adbb   Thumb Code     6  netif.o(.text)
    netif_set_down                           0x0801adc1   Thumb Code    42  netif.o(.text)
    netif_remove                             0x0801adeb   Thumb Code    90  netif.o(.text)
    netif_find                               0x0801ae45   Thumb Code    64  netif.o(.text)
    netif_set_up                             0x0801ae85   Thumb Code    54  netif.o(.text)
    netif_set_link_up                        0x0801aebb   Thumb Code    54  netif.o(.text)
    netif_set_link_down                      0x0801aef1   Thumb Code    24  netif.o(.text)
    pbuf_free                                0x0801affd   Thumb Code   254  pbuf.o(.text)
    pbuf_alloc                               0x0801b0fb   Thumb Code  1152  pbuf.o(.text)
    pbuf_alloced_custom                      0x0801b57b   Thumb Code   144  pbuf.o(.text)
    pbuf_realloc                             0x0801b60b   Thumb Code   268  pbuf.o(.text)
    pbuf_header                              0x0801b717   Thumb Code   206  pbuf.o(.text)
    pbuf_clen                                0x0801b7e5   Thumb Code    18  pbuf.o(.text)
    pbuf_ref                                 0x0801b7f7   Thumb Code    26  pbuf.o(.text)
    pbuf_cat                                 0x0801b811   Thumb Code   138  pbuf.o(.text)
    pbuf_chain                               0x0801b89b   Thumb Code    22  pbuf.o(.text)
    pbuf_dechain                             0x0801b8b1   Thumb Code   122  pbuf.o(.text)
    pbuf_copy                                0x0801b92b   Thumb Code   782  pbuf.o(.text)
    pbuf_copy_partial                        0x0801bc39   Thumb Code   190  pbuf.o(.text)
    pbuf_take                                0x0801bcf7   Thumb Code   210  pbuf.o(.text)
    pbuf_coalesce                            0x0801bdc9   Thumb Code    84  pbuf.o(.text)
    pbuf_get_at                              0x0801be1d   Thumb Code    46  pbuf.o(.text)
    pbuf_memcmp                              0x0801be4b   Thumb Code    96  pbuf.o(.text)
    pbuf_memfind                             0x0801beab   Thumb Code    76  pbuf.o(.text)
    pbuf_strstr                              0x0801bef7   Thumb Code    60  pbuf.o(.text)
    raw_input                                0x0801c061   Thumb Code   102  raw.o(.text)
    raw_bind                                 0x0801c0c7   Thumb Code    16  raw.o(.text)
    raw_connect                              0x0801c0d7   Thumb Code    16  raw.o(.text)
    raw_recv                                 0x0801c0e7   Thumb Code     6  raw.o(.text)
    raw_sendto                               0x0801c0ed   Thumb Code   178  raw.o(.text)
    raw_send                                 0x0801c19f   Thumb Code    18  raw.o(.text)
    raw_remove                               0x0801c1b1   Thumb Code    60  raw.o(.text)
    raw_new                                  0x0801c1ed   Thumb Code    42  raw.o(.text)
    tcp_init                                 0x0801c295   Thumb Code     2  tcp.o(.text)
    tcp_seg_free                             0x0801c297   Thumb Code    26  tcp.o(.text)
    tcp_segs_free                            0x0801c2b1   Thumb Code    24  tcp.o(.text)
    tcp_pcb_purge                            0x0801c2c9   Thumb Code    72  tcp.o(.text)
    tcp_slowtmr                              0x0801c311   Thumb Code  1384  tcp.o(.text)
    tcp_pcb_remove                           0x0801c879   Thumb Code   222  tcp.o(.text)
    tcp_close                                0x0801cb23   Thumb Code    28  tcp.o(.text)
    tcp_update_rcv_ann_wnd                   0x0801cb3f   Thumb Code   394  tcp.o(.text)
    tcp_recved                               0x0801ccc9   Thumb Code   132  tcp.o(.text)
    tcp_recv_null                            0x0801cd4d   Thumb Code    46  tcp.o(.text)
    tcp_process_refused_data                 0x0801cd7b   Thumb Code   144  tcp.o(.text)
    tcp_fasttmr                              0x0801ce0b   Thumb Code   110  tcp.o(.text)
    tcp_tmr                                  0x0801ce79   Thumb Code    30  tcp.o(.text)
    tcp_shutdown                             0x0801ce97   Thumb Code    98  tcp.o(.text)
    tcp_abandon                              0x0801cef9   Thumb Code   174  tcp.o(.text)
    tcp_abort                                0x0801cfa7   Thumb Code    14  tcp.o(.text)
    tcp_bind                                 0x0801d015   Thumb Code   368  tcp.o(.text)
    tcp_listen_with_backlog                  0x0801d18d   Thumb Code   222  tcp.o(.text)
    tcp_eff_send_mss                         0x0801d26b   Thumb Code    46  tcp.o(.text)
    tcp_next_iss                             0x0801d299   Thumb Code    20  tcp.o(.text)
    tcp_connect                              0x0801d2ad   Thumb Code   352  tcp.o(.text)
    tcp_setprio                              0x0801d40d   Thumb Code     4  tcp.o(.text)
    tcp_seg_copy                             0x0801d411   Thumb Code    36  tcp.o(.text)
    tcp_alloc                                0x0801d4b3   Thumb Code   194  tcp.o(.text)
    tcp_new                                  0x0801d575   Thumb Code    10  tcp.o(.text)
    tcp_arg                                  0x0801d57f   Thumb Code   134  tcp.o(.text)
    tcp_recv                                 0x0801d605   Thumb Code    44  tcp.o(.text)
    tcp_sent                                 0x0801d631   Thumb Code    42  tcp.o(.text)
    tcp_err                                  0x0801d65b   Thumb Code    44  tcp.o(.text)
    tcp_accept                               0x0801d687   Thumb Code     4  tcp.o(.text)
    tcp_poll                                 0x0801d68b   Thumb Code    50  tcp.o(.text)
    tcp_debug_state_str                      0x0801d6bd   Thumb Code    10  tcp.o(.text)
    tcp_input                                0x0801edbd   Thumb Code  1646  tcp_in.o(.text)
    tcp_enqueue_flags                        0x0801f591   Thumb Code   396  tcp_out.o(.text)
    tcp_send_fin                             0x0801f71d   Thumb Code    74  tcp_out.o(.text)
    tcp_write                                0x0801f9eb   Thumb Code  1562  tcp_out.o(.text)
    tcp_send_empty_ack                       0x08020005   Thumb Code    78  tcp_out.o(.text)
    tcp_output                               0x0802011b   Thumb Code   662  tcp_out.o(.text)
    tcp_rst                                  0x080203b1   Thumb Code   154  tcp_out.o(.text)
    tcp_rexmit_rto                           0x0802044b   Thumb Code    58  tcp_out.o(.text)
    tcp_rexmit                               0x08020485   Thumb Code    90  tcp_out.o(.text)
    tcp_rexmit_fast                          0x080204df   Thumb Code   112  tcp_out.o(.text)
    tcp_keepalive                            0x0802054f   Thumb Code    68  tcp_out.o(.text)
    tcp_zero_window_probe                    0x08020593   Thumb Code   164  tcp_out.o(.text)
    udp_init                                 0x08020639   Thumb Code     2  udp.o(.text)
    udp_input                                0x0802068b   Thumb Code   434  udp.o(.text)
    udp_bind                                 0x0802083d   Thumb Code   146  udp.o(.text)
    udp_sendto_if                            0x080208cf   Thumb Code   230  udp.o(.text)
    udp_sendto                               0x080209b5   Thumb Code    46  udp.o(.text)
    udp_send                                 0x080209e3   Thumb Code    20  udp.o(.text)
    udp_connect                              0x080209f7   Thumb Code   288  udp.o(.text)
    udp_disconnect                           0x08020b17   Thumb Code    16  udp.o(.text)
    udp_recv                                 0x08020b27   Thumb Code     6  udp.o(.text)
    udp_remove                               0x08020b2d   Thumb Code    60  udp.o(.text)
    udp_new                                  0x08020b69   Thumb Code    28  udp.o(.text)
    lwip_htons                               0x08020b89   Thumb Code    12  def.o(.text)
    lwip_ntohs                               0x08020b95   Thumb Code    12  def.o(.text)
    lwip_htonl                               0x08020ba1   Thumb Code    26  def.o(.text)
    lwip_ntohl                               0x08020bbb   Thumb Code    12  def.o(.text)
    sys_timeout                              0x08020bc9   Thumb Code   174  timers.o(.text)
    tcp_timer_needed                         0x08020c9f   Thumb Code    38  timers.o(.text)
    sys_timeouts_init                        0x08020cf1   Thumb Code    28  timers.o(.text)
    sys_untimeout                            0x08020d0d   Thumb Code    90  timers.o(.text)
    sys_timeouts_mbox_fetch                  0x08020d67   Thumb Code   132  timers.o(.text)
    etharp_tmr                               0x08020ecf   Thumb Code   136  etharp.o(.text)
    etharp_cleanup_netif                     0x08021259   Thumb Code   328  etharp.o(.text)
    etharp_find_addr                         0x080213a1   Thumb Code   110  etharp.o(.text)
    etharp_request                           0x0802164b   Thumb Code    36  etharp.o(.text)
    etharp_query                             0x080216fd   Thumb Code   620  etharp.o(.text)
    etharp_output                            0x08021969   Thumb Code   388  etharp.o(.text)
    ethernet_input                           0x08021aed   Thumb Code   200  etharp.o(.text)
    Display_IPAddress                        0x08021c9d   Thumb Code   100  lwip.o(.text)
    Init_LwIP                                0x08021d01   Thumb Code   118  lwip.o(.text)
    LwIP_Pkt_Handle                          0x08021d77   Thumb Code    10  lwip.o(.text)
    LwIP_Periodic_Handle                     0x08021d81   Thumb Code    60  lwip.o(.text)
    localtime                                0x08021e55   Thumb Code   124  localtime.o(.text)
    __aeabi_memcpy                           0x08021ed9   Thumb Code    36  memcpya.o(.text)
    __aeabi_memcpy4                          0x08021ed9   Thumb Code     0  memcpya.o(.text)
    __aeabi_memcpy8                          0x08021ed9   Thumb Code     0  memcpya.o(.text)
    __aeabi_memset                           0x08021efd   Thumb Code    14  memseta.o(.text)
    __aeabi_memset4                          0x08021efd   Thumb Code     0  memseta.o(.text)
    __aeabi_memset8                          0x08021efd   Thumb Code     0  memseta.o(.text)
    __aeabi_memclr                           0x08021f0b   Thumb Code     4  memseta.o(.text)
    __aeabi_memclr4                          0x08021f0b   Thumb Code     0  memseta.o(.text)
    __aeabi_memclr8                          0x08021f0b   Thumb Code     0  memseta.o(.text)
    _memset$wrapper                          0x08021f0f   Thumb Code    18  memseta.o(.text)
    strstr                                   0x08021f21   Thumb Code    36  strstr.o(.text)
    strlen                                   0x08021f45   Thumb Code    14  strlen.o(.text)
    memcmp                                   0x08021f53   Thumb Code    26  memcmp.o(.text)
    strcpy                                   0x08021f6d   Thumb Code    18  strcpy.o(.text)
    strncmp                                  0x08021f7f   Thumb Code    30  strncmp.o(.text)
    __0sscanf                                0x08021f9d   Thumb Code    48  __0sscanf.o(.text)
    _scanf_int                               0x08021fd5   Thumb Code   336  _scanf_int.o(.text)
    atoi                                     0x08022125   Thumb Code    26  atoi.o(.text)
    __aeabi_fadd                             0x0802213f   Thumb Code   164  fadd.o(.text)
    __aeabi_fsub                             0x080221e3   Thumb Code     6  fadd.o(.text)
    __aeabi_frsub                            0x080221e9   Thumb Code     6  fadd.o(.text)
    __aeabi_fmul                             0x080221ef   Thumb Code   108  fmul.o(.text)
    __aeabi_fdiv                             0x0802225b   Thumb Code   128  fdiv.o(.text)
    __aeabi_dadd                             0x080222db   Thumb Code   322  dadd.o(.text)
    __aeabi_dsub                             0x0802241d   Thumb Code     6  dadd.o(.text)
    __aeabi_drsub                            0x08022423   Thumb Code     6  dadd.o(.text)
    __aeabi_dmul                             0x08022429   Thumb Code   228  dmul.o(.text)
    __aeabi_ddiv                             0x0802250d   Thumb Code   222  ddiv.o(.text)
    __aeabi_i2f                              0x080225eb   Thumb Code    18  fflti.o(.text)
    __aeabi_i2d                              0x080225fd   Thumb Code    34  dflti.o(.text)
    __aeabi_f2iz                             0x0802261f   Thumb Code    50  ffixi.o(.text)
    __aeabi_d2iz                             0x08022651   Thumb Code    62  dfixi.o(.text)
    __aeabi_f2d                              0x0802268f   Thumb Code    38  f2d.o(.text)
    __aeabi_cdcmpeq                          0x080226b5   Thumb Code     0  cdcmple.o(.text)
    __aeabi_cdcmple                          0x080226b5   Thumb Code    38  cdcmple.o(.text)
    __aeabi_d2f                              0x080226dd   Thumb Code    56  d2f.o(.text)
    __aeabi_cfcmpeq                          0x08022715   Thumb Code     0  cfcmple.o(.text)
    __aeabi_cfcmple                          0x08022715   Thumb Code    20  cfcmple.o(.text)
    __aeabi_cfrcmple                         0x08022729   Thumb Code    20  cfrcmple.o(.text)
    __aeabi_uidiv                            0x0802273d   Thumb Code     0  uidiv.o(.text)
    __aeabi_uidivmod                         0x0802273d   Thumb Code    44  uidiv.o(.text)
    __aeabi_uldivmod                         0x08022769   Thumb Code    98  uldiv.o(.text)
    __aeabi_llsl                             0x080227cb   Thumb Code    30  llshl.o(.text)
    _ll_shift_l                              0x080227cb   Thumb Code     0  llshl.o(.text)
    __aeabi_llsr                             0x080227e9   Thumb Code    32  llushr.o(.text)
    _ll_ushift_r                             0x080227e9   Thumb Code     0  llushr.o(.text)
    __aeabi_lasr                             0x08022809   Thumb Code    36  llsshr.o(.text)
    _ll_sshift_r                             0x08022809   Thumb Code     0  llsshr.o(.text)
    _chval                                   0x0802282d   Thumb Code    28  _chval.o(.text)
    __vfscanf_char                           0x08022855   Thumb Code    20  scanf_char.o(.text)
    _sgetc                                   0x08022871   Thumb Code    30  _sgetc.o(.text)
    _sbackspace                              0x0802288f   Thumb Code    34  _sgetc.o(.text)
    strtol                                   0x080228b1   Thumb Code   112  strtol.o(.text)
    __I$use$fp                               0x08022921   Thumb Code     0  iusefp.o(.text)
    _float_round                             0x08022921   Thumb Code    18  fepilogue.o(.text)
    _float_epilogue                          0x08022933   Thumb Code    90  fepilogue.o(.text)
    _double_round                            0x0802298d   Thumb Code    26  depilogue.o(.text)
    _double_epilogue                         0x080229a7   Thumb Code   164  depilogue.o(.text)
    __aeabi_d2ulz                            0x08022a4b   Thumb Code    48  dfixul.o(.text)
    __aeabi_cdrcmple                         0x08022a7d   Thumb Code    38  cdrcmple.o(.text)
    __scatterload                            0x08022aa5   Thumb Code    28  init.o(.text)
    __scatterload_rt2                        0x08022aa5   Thumb Code     0  init.o(.text)
    __rt_ctype_table                         0x08022ac9   Thumb Code     4  ctype_o.o(.text)
    isspace                                  0x08022ad1   Thumb Code    18  isspace_o.o(.text)
    __vfscanf                                0x08022ae5   Thumb Code   806  _scanf.o(.text)
    _strtoul                                 0x08022e11   Thumb Code   158  _strtoul.o(.text)
    __decompress                             0x08022eaf   Thumb Code     0  __dczerorl2.o(.text)
    __decompress1                            0x08022eaf   Thumb Code    92  __dczerorl2.o(.text)
    __0printf                                0x08022f0d   Thumb Code    22  printfa.o(i.__0printf)
    __1printf                                0x08022f0d   Thumb Code     0  printfa.o(i.__0printf)
    __2printf                                0x08022f0d   Thumb Code     0  printfa.o(i.__0printf)
    __c89printf                              0x08022f0d   Thumb Code     0  printfa.o(i.__0printf)
    printf                                   0x08022f0d   Thumb Code     0  printfa.o(i.__0printf)
    __0sprintf                               0x08022f2d   Thumb Code    34  printfa.o(i.__0sprintf)
    __1sprintf                               0x08022f2d   Thumb Code     0  printfa.o(i.__0sprintf)
    __2sprintf                               0x08022f2d   Thumb Code     0  printfa.o(i.__0sprintf)
    __c89sprintf                             0x08022f2d   Thumb Code     0  printfa.o(i.__0sprintf)
    sprintf                                  0x08022f2d   Thumb Code     0  printfa.o(i.__0sprintf)
    __0vprintf                               0x08022f55   Thumb Code     8  printfa.o(i.__0vprintf)
    __1vprintf                               0x08022f55   Thumb Code     0  printfa.o(i.__0vprintf)
    __2vprintf                               0x08022f55   Thumb Code     0  printfa.o(i.__0vprintf)
    __c89vprintf                             0x08022f55   Thumb Code     0  printfa.o(i.__0vprintf)
    vprintf                                  0x08022f55   Thumb Code     0  printfa.o(i.__0vprintf)
    __0vsprintf                              0x08022f65   Thumb Code    30  printfa.o(i.__0vsprintf)
    __1vsprintf                              0x08022f65   Thumb Code     0  printfa.o(i.__0vsprintf)
    __2vsprintf                              0x08022f65   Thumb Code     0  printfa.o(i.__0vsprintf)
    __c89vsprintf                            0x08022f65   Thumb Code     0  printfa.o(i.__0vsprintf)
    vsprintf                                 0x08022f65   Thumb Code     0  printfa.o(i.__0vsprintf)
    __aeabi_errno_addr                       0x08022f89   Thumb Code     4  errno.o(i.__aeabi_errno_addr)
    __rt_errno_addr                          0x08022f89   Thumb Code     0  errno.o(i.__aeabi_errno_addr)
    __scatterload_copy                       0x08022f91   Thumb Code    14  handlers.o(i.__scatterload_copy)
    __scatterload_null                       0x08022f9f   Thumb Code     2  handlers.o(i.__scatterload_null)
    __scatterload_zeroinit                   0x08022fa1   Thumb Code    14  handlers.o(i.__scatterload_zeroinit)
    floor                                    0x0802385d   Thumb Code   204  floor.o(i.floor)
    cmd_ultrasonic                           0x08023a28   Data           4  hal_process_collect.o(.constdata)
    cmd_voltage                              0x08023a2c   Data           4  hal_process_collect.o(.constdata)
    cmd_laser_v1                             0x08023a30   Data           5  hal_process_collect.o(.constdata)
    cmd_laser_v2                             0x08023a35   Data           5  hal_process_collect.o(.constdata)
    cmd_laser_h1                             0x08023a3a   Data           5  hal_process_collect.o(.constdata)
    cmd_laser_h2                             0x08023a3f   Data           5  hal_process_collect.o(.constdata)
    OSUnMapTbl                               0x08023ad5   Data         256  os_core.o(.constdata)
    pvNullPointer                            0x08023bd8   Data           4  sys_arch.o(.constdata)
    ip_addr_any                              0x08023c1c   Data           4  ip_addr.o(.constdata)
    ip_addr_broadcast                        0x08023c20   Data           4  ip_addr.o(.constdata)
    tcp_state_str                            0x08023c5c   Data          44  tcp.o(.constdata)
    tcp_backoff                              0x08023c88   Data          13  tcp.o(.constdata)
    tcp_persist_backoff                      0x08023c95   Data           7  tcp.o(.constdata)
    tcp_pcb_lists                            0x08023c9c   Data          16  tcp.o(.constdata)
    ethbroadcast                             0x08023d04   Data           6  etharp.o(.constdata)
    ethzero                                  0x08023d0a   Data           6  etharp.o(.constdata)
    __ctype_table                            0x08023d60   Data         129  ctype_o.o(.constdata)
    Region$$Table$$Base                      0x08023e50   Number         0  anon$$obj.o(Region$$Table)
    Region$$Table$$Limit                     0x08023e70   Number         0  anon$$obj.o(Region$$Table)
    DBGMutexSem                              0x20000004   Data           4  main.o(.data)
    NetMutexSem                              0x20000008   Data           4  main.o(.data)
    USART1Mbox                               0x2000000c   Data           4  main.o(.data)
    USART2Mbox                               0x20000010   Data           4  main.o(.data)
    USART3Mbox                               0x20000014   Data           4  main.o(.data)
    UART4Mbox                                0x20000018   Data           4  main.o(.data)
    UART5Mbox                                0x2000001c   Data           4  main.o(.data)
    CANItMbox                                0x20000020   Data           4  main.o(.data)
    NetCmdMbox                               0x20000024   Data           4  main.o(.data)
    NetOutMbox                               0x20000028   Data           4  main.o(.data)
    DebugMbox                                0x2000002c   Data           4  main.o(.data)
    g_stopflag                               0x20000030   Data           1  hal_process_control.o(.data)
    g_activerdy                              0x20000031   Data           1  hal_process_control.o(.data)
    g_limitruntimeout                        0x20000034   Data           4  hal_process_control.o(.data)
    g_updata_timeout                         0x20000124   Data           4  hal_process_serves.o(.data)
    g_movelimitcout                          0x20000140   Data           4  hal_process_collect.o(.data)
    g_bedlimitflag                           0x20000144   Data           1  hal_process_collect.o(.data)
    Led_flag                                 0x20000164   Data           4  patrol_control.o(.data)
    tempdisF                                 0x20000168   Data           4  patrol_control.o(.data)
    tempdisB                                 0x2000016c   Data           4  patrol_control.o(.data)
    tempdisL                                 0x20000170   Data           4  patrol_control.o(.data)
    tempdisR                                 0x20000174   Data           4  patrol_control.o(.data)
    l_dis                                    0x20000180   Data           4  patrol_control.o(.data)
    PidData                                  0x20000184   Data           4  patrol_control.o(.data)
    m_LoseLineNub                            0x20000188   Data           4  patrol_control.o(.data)
    rIn                                      0x2000018c   Data           4  patrol_control.o(.data)
    disF                                     0x20000190   Data           4  patrol_control.o(.data)
    disB                                     0x20000194   Data           4  patrol_control.o(.data)
    g_u5time                                 0x2000019c   Data           4  bsp_usart.o(.data)
    SPIFlash_Status                          0x200001a0   Data           1  bsp_spi.o(.data)
    SystemCoreClock                          0x200001a8   Data           4  system_stm32f10x.o(.data)
    AHBPrescTable                            0x200001ac   Data          16  system_stm32f10x.o(.data)
    DMATxDescToSet                           0x200001bc   Data           4  stm32_eth.o(.data)
    DMARxDescToGet                           0x200001c0   Data           4  stm32_eth.o(.data)
    DMAPTPTxDescToSet                        0x200001c4   Data           4  stm32_eth.o(.data)
    DMAPTPRxDescToGet                        0x200001c8   Data           4  stm32_eth.o(.data)
    OSCtxSwCtr                               0x200001e0   Data           4  os_core.o(.data)
    OSEventFreeList                          0x200001e4   Data           4  os_core.o(.data)
    OSFlagFreeList                           0x200001e8   Data           4  os_core.o(.data)
    OSCPUUsage                               0x200001ec   Data           1  os_core.o(.data)
    OSIdleCtrMax                             0x200001f0   Data           4  os_core.o(.data)
    OSIdleCtrRun                             0x200001f4   Data           4  os_core.o(.data)
    OSStatRdy                                0x200001f8   Data           1  os_core.o(.data)
    OSIntNesting                             0x200001f9   Data           1  os_core.o(.data)
    OSLockNesting                            0x200001fa   Data           1  os_core.o(.data)
    OSPrioCur                                0x200001fb   Data           1  os_core.o(.data)
    OSPrioHighRdy                            0x200001fc   Data           1  os_core.o(.data)
    OSRdyGrp                                 0x200001fd   Data           1  os_core.o(.data)
    OSRdyTbl                                 0x200001fe   Data           8  os_core.o(.data)
    OSRunning                                0x20000206   Data           1  os_core.o(.data)
    OSTaskCtr                                0x20000207   Data           1  os_core.o(.data)
    OSIdleCtr                                0x20000208   Data           4  os_core.o(.data)
    OSTCBCur                                 0x2000020c   Data           4  os_core.o(.data)
    OSTCBFreeList                            0x20000210   Data           4  os_core.o(.data)
    OSTCBHighRdy                             0x20000214   Data           4  os_core.o(.data)
    OSTCBList                                0x20000218   Data           4  os_core.o(.data)
    OSTickStepState                          0x2000021c   Data           1  os_core.o(.data)
    OSMemFreeList                            0x20000220   Data           4  os_core.o(.data)
    OSQFreeList                              0x20000224   Data           4  os_core.o(.data)
    OSTime                                   0x20000228   Data           4  os_core.o(.data)
    DMATxDesc                                0x2000022c   Data           4  ethernetif.o(.data)
    lwip_count                               0x20000230   Data           1  ethernetif.o(.data)
    tcp_end_time                             0x20000234   Data           4  ethernetif.o(.data)
    arp_end_time                             0x20000238   Data           4  ethernetif.o(.data)
    MACaddr                                  0x20000240   Data           6  ethernetif.o(.data)
    null_timeouts                            0x2000024c   Data           4  sys_arch.o(.data)
    current_netif                            0x20000264   Data           4  ip.o(.data)
    current_header                           0x20000268   Data           4  ip.o(.data)
    current_iphdr_src                        0x2000026c   Data           4  ip.o(.data)
    current_iphdr_dest                       0x20000270   Data           4  ip.o(.data)
    netif_list                               0x20000290   Data           4  netif.o(.data)
    netif_default                            0x20000294   Data           4  netif.o(.data)
    pbuf_free_ooseq_pending                  0x20000299   Data           1  pbuf.o(.data)
    tcp_ticks                                0x200002a8   Data           4  tcp.o(.data)
    tcp_bound_pcbs                           0x200002ac   Data           4  tcp.o(.data)
    tcp_listen_pcbs                          0x200002b0   Data           4  tcp.o(.data)
    tcp_active_pcbs                          0x200002b4   Data           4  tcp.o(.data)
    tcp_tw_pcbs                              0x200002b8   Data           4  tcp.o(.data)
    tcp_tmp_pcb                              0x200002bc   Data           4  tcp.o(.data)
    tcp_active_pcbs_changed                  0x200002c0   Data           1  tcp.o(.data)
    tcp_input_pcb                            0x200002e0   Data           4  tcp_in.o(.data)
    udp_pcbs                                 0x200002e8   Data           4  udp.o(.data)
    TCPTimer                                 0x200002fc   Data           4  lwip.o(.data)
    ARPTimer                                 0x20000300   Data           4  lwip.o(.data)
    lwip_localtime                           0x20000304   Data           4  lwip.o(.data)
    __stdout                                 0x20000308   Data           4  stdout.o(.data)
    g_netcmd                                 0x20001444   Data          36  hal_process_serves.o(.bss)
    tcp_server_recvbuf                       0x20001bd4   Data         600  hal_process_serves.o(.bss)
    tcp_server_sendbuf                       0x20001e2c   Data         600  hal_process_serves.o(.bss)
    g_data_acousto_optic                     0x20002084   Data          18  hal_process_collect.o(.bss)
    g_receive11                              0x20002096   Data          19  hal_process_collect.o(.bss)
    AD_IO                                    0x200020ac   Data          56  patrol_control.o(.bss)
    pid_value_f                              0x200020e4   Data          40  patrol_control.o(.bss)
    pid_value_b                              0x2000210c   Data          40  patrol_control.o(.bss)
    fPID                                     0x20002134   Data          28  patrol_control.o(.bss)
    bPID                                     0x20002150   Data          28  patrol_control.o(.bss)
    g_system_para                            0x2000216c   Data          28  bsp.o(.bss)
    g_canrecv_msg                            0x20002188   Data          20  bsp_can.o(.bss)
    usart3_rx                                0x2000219c   Data         101  bsp_usart.o(.bss)
    usart1_rx                                0x20002201   Data         101  bsp_usart.o(.bss)
    usart2_rx                                0x20002266   Data         101  bsp_usart.o(.bss)
    uart4_rx                                 0x200022cb   Data         101  bsp_usart.o(.bss)
    uart5_rx                                 0x20002330   Data         101  bsp_usart.o(.bss)
    OSEventTbl                               0x20002398   Data         960  os_core.o(.bss)
    OSFlagTbl                                0x20002758   Data          80  os_core.o(.bss)
    OSTaskStatStk                            0x200027a8   Data         512  os_core.o(.bss)
    OSTaskIdleStk                            0x200029a8   Data         512  os_core.o(.bss)
    OSTCBPrioTbl                             0x20002ba8   Data         256  os_core.o(.bss)
    OSTCBTbl                                 0x20002ca8   Data        2376  os_core.o(.bss)
    OSMemTbl                                 0x200035f0   Data         120  os_core.o(.bss)
    OSQTbl                                   0x20003668   Data          96  os_core.o(.bss)
    DMARxDscrTab                             0x200036c8   Data          64  ethernetif.o(.bss)
    DMATxDscrTab                             0x20003708   Data          32  ethernetif.o(.bss)
    Rx_Buff                                  0x20003728   Data        6080  ethernetif.o(.bss)
    Tx_Buff                                  0x20004ee8   Data        3040  ethernetif.o(.bss)
    LWIP_TASK_STK                            0x20005ac8   Data        3600  sys_arch.o(.bss)
    lwip_timeouts                            0x20006c24   Data          12  sys_arch.o(.bss)
    ram_heap                                 0x20006ca0   Data       16404  mem.o(.bss)
    __initial_sp                             0x2000fb00   Data           0  startup_stm32f10x_cl.o(STACK)



==============================================================================

Memory Map of the image

  Image Entry point : 0x08005151

  Load Region LR_IROM1 (Base: 0x08005000, Size: 0x0001f180, Max: 0x0003b000, ABSOLUTE, COMPRESSED[0x0001ef3c])

    Execution Region ER_IROM1 (Base: 0x08005000, Size: 0x0001ee70, Max: 0x0003b000, ABSOLUTE)

    Base Addr    Size         Type   Attr      Idx    E Section Name        Object

    0x08005000   0x00000150   Data   RO          635    RESET               startup_stm32f10x_cl.o
    0x08005150   0x00000000   Code   RO         1775  * .ARM.Collect$$$$00000000  mc_w.l(entry.o)
    0x08005150   0x00000004   Code   RO         2095    .ARM.Collect$$$$00000001  mc_w.l(entry2.o)
    0x08005154   0x00000004   Code   RO         2098    .ARM.Collect$$$$00000004  mc_w.l(entry5.o)
    0x08005158   0x00000000   Code   RO         2100    .ARM.Collect$$$$00000008  mc_w.l(entry7b.o)
    0x08005158   0x00000000   Code   RO         2102    .ARM.Collect$$$$0000000A  mc_w.l(entry8b.o)
    0x08005158   0x00000008   Code   RO         2103    .ARM.Collect$$$$0000000B  mc_w.l(entry9a.o)
    0x08005160   0x00000000   Code   RO         2105    .ARM.Collect$$$$0000000D  mc_w.l(entry10a.o)
    0x08005160   0x00000000   Code   RO         2107    .ARM.Collect$$$$0000000F  mc_w.l(entry11a.o)
    0x08005160   0x00000004   Code   RO         2096    .ARM.Collect$$$$00002712  mc_w.l(entry2.o)
    0x08005164   0x000002dc   Code   RO            1    .text               main.o
    0x08005440   0x00002e0e   Code   RO          203    .text               hal_process_control.o
    0x0800824e   0x00000002   PAD
    0x08008250   0x00000844   Code   RO          385    .text               hal_process_serves.o
    0x08008a94   0x000007c8   Code   RO          415    .text               hal_process_collect.o
    0x0800925c   0x000006c0   Code   RO          435    .text               hal_process_debug.o
    0x0800991c   0x00001128   Code   RO          448    .text               patrol_control.o
    0x0800aa44   0x00000cd0   Code   RO          472    .text               bsp.o
    0x0800b714   0x000001e4   Code   RO          495    .text               bsp_can.o
    0x0800b8f8   0x000001b4   Code   RO          514    .text               bsp_eth.o
    0x0800baac   0x00000480   Code   RO          529    .text               bsp_usart.o
    0x0800bf2c   0x00000288   Code   RO          545    .text               bsp_tim.o
    0x0800c1b4   0x00000700   Code   RO          560    .text               bsp_spi.o
    0x0800c8b4   0x000000f8   Code   RO          589    .text               stm32f10x_it.o
    0x0800c9ac   0x00000280   Code   RO          615    .text               system_stm32f10x.o
    0x0800cc2c   0x00000024   Code   RO          636    .text               startup_stm32f10x_cl.o
    0x0800cc50   0x000000dc   Code   RO          640    .text               misc.o
    0x0800cd2c   0x00001144   Code   RO          652    .text               stm32_eth.o
    0x0800de70   0x000009ec   Code   RO          697    .text               stm32f10x_can.o
    0x0800e85c   0x0000011c   Code   RO          784    .text               stm32f10x_exti.o
    0x0800e978   0x000005bc   Code   RO          796    .text               stm32f10x_flash.o
    0x0800ef34   0x00000358   Code   RO          823    .text               stm32f10x_gpio.o
    0x0800f28c   0x00000040   Code   RO          850    .text               stm32f10x_iwdg.o
    0x0800f2cc   0x000000cc   Code   RO          862    .text               stm32f10x_pwr.o
    0x0800f398   0x00000504   Code   RO          874    .text               stm32f10x_rcc.o
    0x0800f89c   0x00000354   Code   RO          915    .text               stm32f10x_spi.o
    0x0800fbf0   0x00000e1a   Code   RO          927    .text               stm32f10x_tim.o
    0x08010a0a   0x00000002   PAD
    0x08010a0c   0x00000408   Code   RO          939    .text               stm32f10x_usart.o
    0x08010e14   0x00000d04   Code   RO          963    .text               os_core.o
    0x08011b18   0x00000114   Code   RO          983    .text               os_cpu_c.o
    0x08011c2c   0x00000818   Code   RO         1015    .text               os_flag.o
    0x08012444   0x000003e4   Code   RO         1027    .text               os_mbox.o
    0x08012828   0x000001e4   Code   RO         1039    .text               os_mem.o
    0x08012a0c   0x00000600   Code   RO         1063    .text               os_q.o
    0x0801300c   0x000003a4   Code   RO         1075    .text               os_sem.o
    0x080133b0   0x00000828   Code   RO         1087    .text               os_task.o
    0x08013bd8   0x000001b8   Code   RO         1099    .text               os_time.o
    0x08013d90   0x000000ac   Code   RO         1117    .text               os_cpu_a.o
    0x08013e3c   0x00000374   Code   RO         1120    .text               ethernetif.o
    0x080141b0   0x000004dc   Code   RO         1165    .text               sys_arch.o
    0x0801468c   0x00000be8   Code   RO         1195    .text               api_lib.o
    0x08015274   0x000017ac   Code   RO         1232    .text               api_msg.o
    0x08016a20   0x000003ac   Code   RO         1257    .text               netbuf.o
    0x08016dcc   0x00001adc   Code   RO         1291    .text               sockets.o
    0x080188a8   0x00000390   Code   RO         1310    .text               tcpip.o
    0x08018c38   0x000003f8   Code   RO         1342    .text               icmp.o
    0x08019030   0x0000029c   Code   RO         1369    .text               inet_chksum.o
    0x080192cc   0x000003a8   Code   RO         1381    .text               ip.o
    0x08019674   0x00000320   Code   RO         1428    .text               ip_addr.o
    0x08019994   0x000009f2   Code   RO         1451    .text               ip_frag.o
    0x0801a386   0x00000024   Code   RO         1480    .text               init.o
    0x0801a3aa   0x00000002   PAD
    0x0801a3ac   0x00000724   Code   RO         1501    .text               mem.o
    0x0801aad0   0x000001c4   Code   RO         1517    .text               memp.o
    0x0801ac94   0x000002ec   Code   RO         1544    .text               netif.o
    0x0801af80   0x000010e0   Code   RO         1566    .text               pbuf.o
    0x0801c060   0x00000234   Code   RO         1590    .text               raw.o
    0x0801c294   0x000014d0   Code   RO         1622    .text               tcp.o
    0x0801d764   0x00001cec   Code   RO         1646    .text               tcp_in.o
    0x0801f450   0x000011e6   Code   RO         1669    .text               tcp_out.o
    0x08020636   0x00000002   PAD
    0x08020638   0x00000550   Code   RO         1682    .text               udp.o
    0x08020b88   0x0000003e   Code   RO         1700    .text               def.o
    0x08020bc6   0x00000002   PAD
    0x08020bc8   0x000002cc   Code   RO         1712    .text               timers.o
    0x08020e94   0x00000db0   Code   RO         1726    .text               etharp.o
    0x08021c44   0x00000210   Code   RO         1746    .text               lwip.o
    0x08021e54   0x00000084   Code   RO         1778    .text               mc_w.l(localtime.o)
    0x08021ed8   0x00000024   Code   RO         1782    .text               mc_w.l(memcpya.o)
    0x08021efc   0x00000024   Code   RO         1784    .text               mc_w.l(memseta.o)
    0x08021f20   0x00000024   Code   RO         1786    .text               mc_w.l(strstr.o)
    0x08021f44   0x0000000e   Code   RO         1788    .text               mc_w.l(strlen.o)
    0x08021f52   0x0000001a   Code   RO         1790    .text               mc_w.l(memcmp.o)
    0x08021f6c   0x00000012   Code   RO         1792    .text               mc_w.l(strcpy.o)
    0x08021f7e   0x0000001e   Code   RO         1794    .text               mc_w.l(strncmp.o)
    0x08021f9c   0x00000038   Code   RO         2059    .text               mc_w.l(__0sscanf.o)
    0x08021fd4   0x00000150   Code   RO         2061    .text               mc_w.l(_scanf_int.o)
    0x08022124   0x0000001a   Code   RO         2063    .text               mc_w.l(atoi.o)
    0x0802213e   0x000000b0   Code   RO         2065    .text               mf_w.l(fadd.o)
    0x080221ee   0x0000006c   Code   RO         2067    .text               mf_w.l(fmul.o)
    0x0802225a   0x00000080   Code   RO         2069    .text               mf_w.l(fdiv.o)
    0x080222da   0x0000014e   Code   RO         2071    .text               mf_w.l(dadd.o)
    0x08022428   0x000000e4   Code   RO         2073    .text               mf_w.l(dmul.o)
    0x0802250c   0x000000de   Code   RO         2075    .text               mf_w.l(ddiv.o)
    0x080225ea   0x00000012   Code   RO         2077    .text               mf_w.l(fflti.o)
    0x080225fc   0x00000022   Code   RO         2079    .text               mf_w.l(dflti.o)
    0x0802261e   0x00000032   Code   RO         2081    .text               mf_w.l(ffixi.o)
    0x08022650   0x0000003e   Code   RO         2083    .text               mf_w.l(dfixi.o)
    0x0802268e   0x00000026   Code   RO         2085    .text               mf_w.l(f2d.o)
    0x080226b4   0x00000028   Code   RO         2087    .text               mf_w.l(cdcmple.o)
    0x080226dc   0x00000038   Code   RO         2089    .text               mf_w.l(d2f.o)
    0x08022714   0x00000014   Code   RO         2091    .text               mf_w.l(cfcmple.o)
    0x08022728   0x00000014   Code   RO         2093    .text               mf_w.l(cfrcmple.o)
    0x0802273c   0x0000002c   Code   RO         2110    .text               mc_w.l(uidiv.o)
    0x08022768   0x00000062   Code   RO         2112    .text               mc_w.l(uldiv.o)
    0x080227ca   0x0000001e   Code   RO         2114    .text               mc_w.l(llshl.o)
    0x080227e8   0x00000020   Code   RO         2116    .text               mc_w.l(llushr.o)
    0x08022808   0x00000024   Code   RO         2118    .text               mc_w.l(llsshr.o)
    0x0802282c   0x0000001c   Code   RO         2127    .text               mc_w.l(_chval.o)
    0x08022848   0x00000028   Code   RO         2129    .text               mc_w.l(scanf_char.o)
    0x08022870   0x00000040   Code   RO         2131    .text               mc_w.l(_sgetc.o)
    0x080228b0   0x00000070   Code   RO         2133    .text               mc_w.l(strtol.o)
    0x08022920   0x00000000   Code   RO         2135    .text               mc_w.l(iusefp.o)
    0x08022920   0x0000006c   Code   RO         2136    .text               mf_w.l(fepilogue.o)
    0x0802298c   0x000000be   Code   RO         2138    .text               mf_w.l(depilogue.o)
    0x08022a4a   0x00000030   Code   RO         2140    .text               mf_w.l(dfixul.o)
    0x08022a7a   0x00000002   PAD
    0x08022a7c   0x00000028   Code   RO         2142    .text               mf_w.l(cdrcmple.o)
    0x08022aa4   0x00000024   Code   RO         2144    .text               mc_w.l(init.o)
    0x08022ac8   0x00000008   Code   RO         2148    .text               mc_w.l(ctype_o.o)
    0x08022ad0   0x00000012   Code   RO         2170    .text               mc_w.l(isspace_o.o)
    0x08022ae2   0x00000002   PAD
    0x08022ae4   0x0000032c   Code   RO         2176    .text               mc_w.l(_scanf.o)
    0x08022e10   0x0000009e   Code   RO         2178    .text               mc_w.l(_strtoul.o)
    0x08022eae   0x0000005c   Code   RO         2191    .text               mc_w.l(__dczerorl2.o)
    0x08022f0a   0x00000002   PAD
    0x08022f0c   0x00000020   Code   RO         2031    i.__0printf         mc_w.l(printfa.o)
    0x08022f2c   0x00000028   Code   RO         2033    i.__0sprintf        mc_w.l(printfa.o)
    0x08022f54   0x00000010   Code   RO         2035    i.__0vprintf        mc_w.l(printfa.o)
    0x08022f64   0x00000024   Code   RO         2037    i.__0vsprintf       mc_w.l(printfa.o)
    0x08022f88   0x00000008   Code   RO         2120    i.__aeabi_errno_addr  mc_w.l(errno.o)
    0x08022f90   0x0000000e   Code   RO         2185    i.__scatterload_copy  mc_w.l(handlers.o)
    0x08022f9e   0x00000002   Code   RO         2186    i.__scatterload_null  mc_w.l(handlers.o)
    0x08022fa0   0x0000000e   Code   RO         2187    i.__scatterload_zeroinit  mc_w.l(handlers.o)
    0x08022fae   0x00000002   PAD
    0x08022fb0   0x0000015c   Code   RO         2038    i._fp_digits        mc_w.l(printfa.o)
    0x0802310c   0x000006f0   Code   RO         2039    i._printf_core      mc_w.l(printfa.o)
    0x080237fc   0x00000026   Code   RO         2040    i._printf_post_padding  mc_w.l(printfa.o)
    0x08023822   0x00000030   Code   RO         2041    i._printf_pre_padding  mc_w.l(printfa.o)
    0x08023852   0x0000000a   Code   RO         2043    i._sputc            mc_w.l(printfa.o)
    0x0802385c   0x000000dc   Code   RO         1772    i.floor             m_ws.l(floor.o)
    0x08023938   0x000000f0   Data   RO          205    .constdata          hal_process_control.o
    0x08023a28   0x00000020   Data   RO          417    .constdata          hal_process_collect.o
    0x08023a48   0x00000049   Data   RO          436    .constdata          hal_process_debug.o
    0x08023a91   0x00000003   PAD
    0x08023a94   0x00000041   Data   RO          497    .constdata          bsp_can.o
    0x08023ad5   0x00000100   Data   RO          965    .constdata          os_core.o
    0x08023bd5   0x00000003   PAD
    0x08023bd8   0x00000004   Data   RO         1167    .constdata          sys_arch.o
    0x08023bdc   0x00000040   Data   RO         1293    .constdata          sockets.o
    0x08023c1c   0x00000008   Data   RO         1430    .constdata          ip_addr.o
    0x08023c24   0x00000038   Data   RO         1519    .constdata          memp.o
    0x08023c5c   0x00000050   Data   RO         1623    .constdata          tcp.o
    0x08023cac   0x00000055   Data   RO         1670    .constdata          tcp_out.o
    0x08023d01   0x00000003   PAD
    0x08023d04   0x00000050   Data   RO         1728    .constdata          etharp.o
    0x08023d54   0x0000000c   Data   RO         1780    .constdata          mc_w.l(localtime.o)
    0x08023d60   0x00000081   Data   RO         2149    .constdata          mc_w.l(ctype_o.o)
    0x08023de1   0x00000003   PAD
    0x08023de4   0x00000004   Data   RO         2150    .constdata          mc_w.l(ctype_o.o)
    0x08023de8   0x00000068   Data   RO         1624    .conststring        tcp.o
    0x08023e50   0x00000020   Data   RO         2183    Region$$Table       anon$$obj.o


    Execution Region RW_IRAM1 (Base: 0x20000000, Size: 0x0000fb00, Max: 0x00010000, ABSOLUTE, COMPRESSED[0x000000cc])

    Base Addr    Size         Type   Attr      Idx    E Section Name        Object

    0x20000000   0x00000030   Data   RW            3    .data               main.o
    0x20000030   0x000000f4   Data   RW          206    .data               hal_process_control.o
    0x20000124   0x0000001c   Data   RW          387    .data               hal_process_serves.o
    0x20000140   0x00000024   Data   RW          418    .data               hal_process_collect.o
    0x20000164   0x00000034   Data   RW          450    .data               patrol_control.o
    0x20000198   0x00000001   Data   RW          474    .data               bsp.o
    0x20000199   0x00000003   PAD
    0x2000019c   0x00000004   Data   RW          531    .data               bsp_usart.o
    0x200001a0   0x00000008   Data   RW          561    .data               bsp_spi.o
    0x200001a8   0x00000014   Data   RW          616    .data               system_stm32f10x.o
    0x200001bc   0x00000010   Data   RW          653    .data               stm32_eth.o
    0x200001cc   0x00000014   Data   RW          875    .data               stm32f10x_rcc.o
    0x200001e0   0x0000004c   Data   RW          966    .data               os_core.o
    0x2000022c   0x0000001a   Data   RW         1122    .data               ethernetif.o
    0x20000246   0x00000002   PAD
    0x20000248   0x00000008   Data   RW         1168    .data               sys_arch.o
    0x20000250   0x00000008   Data   RW         1294    .data               sockets.o
    0x20000258   0x0000000c   Data   RW         1311    .data               tcpip.o
    0x20000264   0x00000012   Data   RW         1382    .data               ip.o
    0x20000276   0x00000002   PAD
    0x20000278   0x00000006   Data   RW         1452    .data               ip_frag.o
    0x2000027e   0x00000002   PAD
    0x20000280   0x00000010   Data   RW         1503    .data               mem.o
    0x20000290   0x00000009   Data   RW         1545    .data               netif.o
    0x20000299   0x00000001   Data   RW         1567    .data               pbuf.o
    0x2000029a   0x00000002   PAD
    0x2000029c   0x00000004   Data   RW         1591    .data               raw.o
    0x200002a0   0x00000023   Data   RW         1625    .data               tcp.o
    0x200002c3   0x00000001   PAD
    0x200002c4   0x00000020   Data   RW         1648    .data               tcp_in.o
    0x200002e4   0x00000008   Data   RW         1683    .data               udp.o
    0x200002ec   0x00000008   Data   RW         1713    .data               timers.o
    0x200002f4   0x00000001   Data   RW         1729    .data               etharp.o
    0x200002f5   0x00000003   PAD
    0x200002f8   0x00000010   Data   RW         1748    .data               lwip.o
    0x20000308   0x00000004   Data   RW         2109    .data               mc_w.l(stdout.o)
    0x2000030c   0x00000004   Data   RW         2123    .data               mc_w.l(errno.o)
    0x20000310   0x00001100   Zero   RW            2    .bss                main.o
    0x20001410   0x00000032   Zero   RW          204    .bss                hal_process_control.o
    0x20001442   0x00000002   PAD
    0x20001444   0x00000c40   Zero   RW          386    .bss                hal_process_serves.o
    0x20002084   0x00000025   Zero   RW          416    .bss                hal_process_collect.o
    0x200020a9   0x00000003   PAD
    0x200020ac   0x000000c0   Zero   RW          449    .bss                patrol_control.o
    0x2000216c   0x0000001c   Zero   RW          473    .bss                bsp.o
    0x20002188   0x00000014   Zero   RW          496    .bss                bsp_can.o
    0x2000219c   0x000001f9   Zero   RW          530    .bss                bsp_usart.o
    0x20002395   0x00000003   PAD
    0x20002398   0x00001330   Zero   RW          964    .bss                os_core.o
    0x200036c8   0x00002400   Zero   RW         1121    .bss                ethernetif.o
    0x20005ac8   0x00001168   Zero   RW         1166    .bss                sys_arch.o
    0x20006c30   0x00000060   Zero   RW         1292    .bss                sockets.o
    0x20006c90   0x00000010   Zero   RW         1429    .bss                ip_addr.o
    0x20006ca0   0x00004014   Zero   RW         1502    .bss                mem.o
    0x2000acb4   0x00004913   Zero   RW         1518    .bss                memp.o
    0x2000f5c7   0x00000001   PAD
    0x2000f5c8   0x00000010   Zero   RW         1647    .bss                tcp_in.o
    0x2000f5d8   0x000000c8   Zero   RW         1727    .bss                etharp.o
    0x2000f6a0   0x00000030   Zero   RW         1747    .bss                lwip.o
    0x2000f6d0   0x0000002c   Zero   RW         1779    .bss                mc_w.l(localtime.o)
    0x2000f6fc   0x00000004   PAD
    0x2000f700   0x00000400   Zero   RW          633    STACK               startup_stm32f10x_cl.o


==============================================================================

Image component sizes


      Code (inc. data)   RO Data    RW Data    ZI Data      Debug   Object Name

      3048        808          0          0          0      16689   api_lib.o
      6060       1218          0          0          0       9947   api_msg.o
      3280         96          0          1         28      32243   bsp.o
       484         28         65          0         20       1823   bsp_can.o
       436         18          0          0          0        890   bsp_eth.o
      1792         52          0          8          0       6914   bsp_spi.o
       648         24          0          0          0       1519   bsp_tim.o
      1152         56          0          4        505       3172   bsp_usart.o
         0          0          0          0          0         32   core_cm3.o
        62          0          0          0          0       1002   def.o
      3504        588         80          1        200       9307   etharp.o
       884        138          0         26       9216      14152   ethernetif.o
      1992        432         32         36         37       3615   hal_process_collect.o
     11790        598        240        244         50     256503   hal_process_control.o
      1728        494         73          0          0       1408   hal_process_debug.o
      2116        418          0         28       3136       5632   hal_process_serves.o
      1016        370          0          0          0       2342   icmp.o
       668         96          0          0          0       2757   inet_chksum.o
        36          0          0          0          0        400   init.o
       936        164          0         18          0      14844   ip.o
       800        104          8          0         16       8787   ip_addr.o
      2546        478          0          6          0       6908   ip_frag.o
       528        152          0         16         48       2278   lwip.o
       732        168          0         48       4352     370391   main.o
      1828        556          0         16      16404       3802   mem.o
       452        190         56          0      18707       2634   memp.o
       220         20          0          0          0       1577   misc.o
       940        338          0          0          0       7357   netbuf.o
       748        120          0          9          0       5661   netif.o
      3332        274        256         76       4912      17611   os_core.o
       172         32          0          0          0        244   os_cpu_a.o
       276         12          0          0          0      25634   os_cpu_c.o
      2072         40          0          0          0       6608   os_flag.o
       996         20          0          0          0       3942   os_mbox.o
       484         16          0          0          0       2920   os_mem.o
      1536         36          0          0          0       5337   os_q.o
       932         22          0          0          0       3702   os_sem.o
      2088         70          0          0          0       7389   os_task.o
       440         30          0          0          0       1686   os_time.o
      4392        300          0         52        192       7744   patrol_control.o
      4320       1238          0          1          0       9939   pbuf.o
       564        126          0          4          0       3017   raw.o
      6876        664         64          8         96      20798   sockets.o
        36          8        336          0       1024        712   startup_stm32f10x_cl.o
      4420        134          0         16          0      23397   stm32_eth.o
      2540         38          0          0          0       7632   stm32f10x_can.o
       284         10          0          0          0       2015   stm32f10x_exti.o
      1468         34          0          0          0       7810   stm32f10x_flash.o
       856         40          0          0          0       5425   stm32f10x_gpio.o
       248         36          0          0          0       6049   stm32f10x_it.o
        64          6          0          0          0       1165   stm32f10x_iwdg.o
       204         16          0          0          0       1811   stm32f10x_pwr.o
      1284         72          0         20          0      10862   stm32f10x_rcc.o
       852         20          0          0          0       6362   stm32f10x_spi.o
      3610         88          0          0          0      21912   stm32f10x_tim.o
      1032         22          0          0          0       8148   stm32f10x_usart.o
      1244        220          4          8       4456       8253   sys_arch.o
       640         48          0         20          0       1727   system_stm32f10x.o
      5328       1116        184         35          0      21232   tcp.o
      7404       1058          0         32         16      15375   tcp_in.o
      4582        856         85          0          0       9431   tcp_out.o
       912        188          0         12          0       9184   tcpip.o
       716        170          0          8          0       2931   timers.o
      1360        192          0          8          0       6362   udp.o

    ----------------------------------------------------------------------
    118000      14976       1524        776      63424    1088952   Object Totals
         0          0         32          0          0          0   (incl. Generated)
        10          0          9         15          9          0   (incl. Padding)

    ----------------------------------------------------------------------

      Code (inc. data)   RO Data    RW Data    ZI Data      Debug   Library Member Name

       220         16          0          0          0         84   floor.o
        56          8          0          0          0         84   __0sscanf.o
        92          0          0          0          0          0   __dczerorl2.o
        28          0          0          0          0         68   _chval.o
       812          6          0          0          0        112   _scanf.o
       336          0          0          0          0         96   _scanf_int.o
        64          0          0          0          0         84   _sgetc.o
       158          0          0          0          0         92   _strtoul.o
        26          0          0          0          0         80   atoi.o
         8          4        133          0          0         68   ctype_o.o
         0          0          0          0          0          0   entry.o
         0          0          0          0          0          0   entry10a.o
         0          0          0          0          0          0   entry11a.o
         8          4          0          0          0          0   entry2.o
         4          0          0          0          0          0   entry5.o
         0          0          0          0          0          0   entry7b.o
         0          0          0          0          0          0   entry8b.o
         8          4          0          0          0          0   entry9a.o
         8          4          0          4          0         68   errno.o
        30          0          0          0          0          0   handlers.o
        36          8          0          0          0         68   init.o
        18          0          0          0          0         76   isspace_o.o
         0          0          0          0          0          0   iusefp.o
        30          0          0          0          0         68   llshl.o
        36          0          0          0          0         68   llsshr.o
        32          0          0          0          0         68   llushr.o
       132          8         12          0         44         76   localtime.o
        26          0          0          0          0         80   memcmp.o
        36          0          0          0          0         68   memcpya.o
        36          0          0          0          0        108   memseta.o
      2344        110          0          0          0        744   printfa.o
        40          8          0          0          0         84   scanf_char.o
         0          0          0          4          0          0   stdout.o
        18          0          0          0          0         68   strcpy.o
        14          0          0          0          0         68   strlen.o
        30          0          0          0          0         80   strncmp.o
        36          0          0          0          0         80   strstr.o
       112          0          0          0          0         88   strtol.o
        44          0          0          0          0         80   uidiv.o
        98          0          0          0          0         92   uldiv.o
        40          2          0          0          0         68   cdcmple.o
        40          2          0          0          0         68   cdrcmple.o
        20          0          0          0          0         68   cfcmple.o
        20          0          0          0          0         68   cfrcmple.o
        56          0          0          0          0         88   d2f.o
       334          0          0          0          0        148   dadd.o
       222          0          0          0          0        100   ddiv.o
       190          0          0          0          0        176   depilogue.o
        62          0          0          0          0         80   dfixi.o
        48          0          0          0          0         68   dfixul.o
        34          0          0          0          0         76   dflti.o
       228          0          0          0          0         96   dmul.o
        38          0          0          0          0         68   f2d.o
       176          0          0          0          0        140   fadd.o
       128          0          0          0          0         88   fdiv.o
       108          0          0          0          0        168   fepilogue.o
        50          0          0          0          0         68   ffixi.o
        18          0          0          0          0         68   fflti.o
       108          0          0          0          0         76   fmul.o

    ----------------------------------------------------------------------
      6904        184        148          8         48       4680   Library Totals
         8          0          3          0          4          0   (incl. Padding)

    ----------------------------------------------------------------------

      Code (inc. data)   RO Data    RW Data    ZI Data      Debug   Library Name

       220         16          0          0          0         84   m_ws.l
      4756        164        145          8         44       2816   mc_w.l
      1920          4          0          0          0       1780   mf_w.l

    ----------------------------------------------------------------------
      6904        184        148          8         48       4680   Library Totals

    ----------------------------------------------------------------------

==============================================================================


      Code (inc. data)   RO Data    RW Data    ZI Data      Debug   

    124904      15160       1672        784      63472    1085312   Grand Totals
    124904      15160       1672        204      63472    1085312   ELF Image Totals (compressed)
    124904      15160       1672        204          0          0   ROM Totals

==============================================================================

    Total RO  Size (Code + RO Data)               126576 ( 123.61kB)
    Total RW  Size (RW Data + ZI Data)             64256 (  62.75kB)
    Total ROM Size (Code + RO Data + RW Data)     126780 ( 123.81kB)

==============================================================================

